
lab2.elf:     file format elf32-littlenios2
lab2.elf
architecture: nios2, flags 0x00000112:
EXEC_P, HAS_SYMS, D_PAGED
start address 0x020001b4

Program Header:
    LOAD off    0x00001000 vaddr 0x02000000 paddr 0x02000000 align 2**12
         filesz 0x00000020 memsz 0x00000020 flags r-x
    LOAD off    0x00001020 vaddr 0x02000020 paddr 0x02000020 align 2**12
         filesz 0x00011908 memsz 0x00011908 flags r-x
    LOAD off    0x00012928 vaddr 0x02011928 paddr 0x020135e4 align 2**12
         filesz 0x00001cbc memsz 0x00001cbc flags rw-
    LOAD off    0x000152a0 vaddr 0x020152a0 paddr 0x020152a0 align 2**12
         filesz 0x00000000 memsz 0x0001acd8 flags rw-

Sections:
Idx Name          Size      VMA       LMA       File off  Algn
  0 .entry        00000020  02000000  02000000  00001000  2**5
                  CONTENTS, ALLOC, LOAD, READONLY, CODE
  1 .exceptions   00000194  02000020  02000020  00001020  2**2
                  CONTENTS, ALLOC, LOAD, READONLY, CODE
  2 .text         00010e80  020001b4  020001b4  000011b4  2**2
                  CONTENTS, ALLOC, LOAD, READONLY, CODE
  3 .rodata       000008f4  02011034  02011034  00012034  2**2
                  CONTENTS, ALLOC, LOAD, READONLY, DATA
  4 .rwdata       00001cbc  02011928  020135e4  00012928  2**2
                  CONTENTS, ALLOC, LOAD, DATA, SMALL_DATA
  5 .bss          0001acd8  020152a0  020152a0  000152a0  2**2
                  ALLOC, SMALL_DATA
  6 .comment      00000023  00000000  00000000  000145e4  2**0
                  CONTENTS, READONLY
  7 .debug_aranges 00000d78  00000000  00000000  00014608  2**3
                  CONTENTS, READONLY, DEBUGGING
  8 .debug_pubnames 000014c6  00000000  00000000  00015380  2**0
                  CONTENTS, READONLY, DEBUGGING
  9 .debug_info   00024b0e  00000000  00000000  00016846  2**0
                  CONTENTS, READONLY, DEBUGGING
 10 .debug_abbrev 00008121  00000000  00000000  0003b354  2**0
                  CONTENTS, READONLY, DEBUGGING
 11 .debug_line   00015270  00000000  00000000  00043475  2**0
                  CONTENTS, READONLY, DEBUGGING
 12 .debug_frame  00001aa0  00000000  00000000  000586e8  2**2
                  CONTENTS, READONLY, DEBUGGING
 13 .debug_str    000024b4  00000000  00000000  0005a188  2**0
                  CONTENTS, READONLY, DEBUGGING
 14 .debug_loc    0000c47a  00000000  00000000  0005c63c  2**0
                  CONTENTS, READONLY, DEBUGGING
 15 .debug_alt_sim_info 00000050  00000000  00000000  00068ab8  2**2
                  CONTENTS, READONLY, DEBUGGING
 16 .debug_ranges 000009e0  00000000  00000000  00068b08  2**3
                  CONTENTS, READONLY, DEBUGGING
 17 .thread_model 00000003  00000000  00000000  0006d4a7  2**0
                  CONTENTS, READONLY
 18 .cpu          00000005  00000000  00000000  0006d4aa  2**0
                  CONTENTS, READONLY
 19 .simulation_enabled 00000001  00000000  00000000  0006d4af  2**0
                  CONTENTS, READONLY
 20 .sysid_hash   00000004  00000000  00000000  0006d4b0  2**0
                  CONTENTS, READONLY
 21 .sysid_base   00000004  00000000  00000000  0006d4b4  2**0
                  CONTENTS, READONLY
 22 .sysid_time   00000004  00000000  00000000  0006d4b8  2**0
                  CONTENTS, READONLY
 23 .stderr_dev   0000000b  00000000  00000000  0006d4bc  2**0
                  CONTENTS, READONLY
 24 .stdin_dev    0000000b  00000000  00000000  0006d4c7  2**0
                  CONTENTS, READONLY
 25 .stdout_dev   0000000b  00000000  00000000  0006d4d2  2**0
                  CONTENTS, READONLY
 26 .sopc_system_name 0000000d  00000000  00000000  0006d4dd  2**0
                  CONTENTS, READONLY
 27 .quartus_project_dir 00000015  00000000  00000000  0006d4ea  2**0
                  CONTENTS, READONLY
 28 .jdi          00004111  00000000  00000000  0006d4ff  2**0
                  CONTENTS, READONLY
SYMBOL TABLE:
02000000 l    d  .entry	00000000 .entry
02000020 l    d  .exceptions	00000000 .exceptions
020001b4 l    d  .text	00000000 .text
02011034 l    d  .rodata	00000000 .rodata
02011928 l    d  .rwdata	00000000 .rwdata
020152a0 l    d  .bss	00000000 .bss
00000000 l    d  .comment	00000000 .comment
00000000 l    d  .debug_aranges	00000000 .debug_aranges
00000000 l    d  .debug_pubnames	00000000 .debug_pubnames
00000000 l    d  .debug_info	00000000 .debug_info
00000000 l    d  .debug_abbrev	00000000 .debug_abbrev
00000000 l    d  .debug_line	00000000 .debug_line
00000000 l    d  .debug_frame	00000000 .debug_frame
00000000 l    d  .debug_str	00000000 .debug_str
00000000 l    d  .debug_loc	00000000 .debug_loc
00000000 l    d  .debug_alt_sim_info	00000000 .debug_alt_sim_info
00000000 l    d  .debug_ranges	00000000 .debug_ranges
020001ec l       .text	00000000 alt_after_alt_main
00000000 l    df *ABS*	00000000 alt_irq_handler.c
00000000 l    df *ABS*	00000000 LCD.c
00000000 l    df *ABS*	00000000 Open_I2C.c
00000000 l    df *ABS*	00000000 main.c
0200089c l     F .text	00000054 handle_button_interrupts
00000000 l    df *ABS*	00000000 wm8731.c
00000000 l    df *ABS*	00000000 s_ceil.c
00000000 l    df *ABS*	00000000 s_floor.c
00000000 l    df *ABS*	00000000 dp-bit.c
020036b4 l     F .text	00000410 _fpadd_parts
00000000 l    df *ABS*	00000000 dp-bit.c
00000000 l    df *ABS*	00000000 dp-bit.c
00000000 l    df *ABS*	00000000 dp-bit.c
00000000 l    df *ABS*	00000000 dp-bit.c
00000000 l    df *ABS*	00000000 dp-bit.c
00000000 l    df *ABS*	00000000 lib2-divmod.c
02003fa4 l     F .text	0000007c udivmodsi4
00000000 l    df *ABS*	00000000 lib2-divtable.c
00000000 l    df *ABS*	00000000 lib2-mul.c
00000000 l    df *ABS*	00000000 libgcc2.c
00000000 l    df *ABS*	00000000 dp-bit.c
00000000 l    df *ABS*	00000000 dp-bit.c
00000000 l    df *ABS*	00000000 dp-bit.c
00000000 l    df *ABS*	00000000 libgcc2.c
00000000 l    df *ABS*	00000000 memset.c
00000000 l    df *ABS*	00000000 printf.c
00000000 l    df *ABS*	00000000 puts.c
00000000 l    df *ABS*	00000000 strcmp.c
00000000 l    df *ABS*	00000000 strcpy.c
00000000 l    df *ABS*	00000000 strlen.c
00000000 l    df *ABS*	00000000 vfprintf.c
02004a3c l     F .text	00000058 __sprint_r
020114d6 l     O .rodata	00000010 blanks.3452
020114c6 l     O .rodata	00000010 zeroes.3453
00000000 l    df *ABS*	00000000 wsetup.c
00000000 l    df *ABS*	00000000 dtoa.c
02006ab8 l     F .text	00000244 quorem
00000000 l    df *ABS*	00000000 fflush.c
00000000 l    df *ABS*	00000000 findfp.c
020084e0 l     F .text	00000058 std
020085ec l     F .text	00000008 __fp_lock
020085f4 l     F .text	00000008 __fp_unlock
00000000 l    df *ABS*	00000000 mallocr.c
00000000 l    df *ABS*	00000000 fvwrite.c
00000000 l    df *ABS*	00000000 fwalk.c
00000000 l    df *ABS*	00000000 impure.c
02011a28 l     O .rwdata	00000400 impure_data
00000000 l    df *ABS*	00000000 locale.c
020135a8 l     O .rwdata	00000004 charset
02011508 l     O .rodata	00000030 lconv
00000000 l    df *ABS*	00000000 makebuf.c
00000000 l    df *ABS*	00000000 mallocr.c
00000000 l    df *ABS*	00000000 memchr.c
00000000 l    df *ABS*	00000000 memcpy.c
00000000 l    df *ABS*	00000000 memmove.c
00000000 l    df *ABS*	00000000 mprec.c
02011650 l     O .rodata	0000000c p05.2458
00000000 l    df *ABS*	00000000 mallocr.c
00000000 l    df *ABS*	00000000 s_isinfd.c
00000000 l    df *ABS*	00000000 s_isnand.c
00000000 l    df *ABS*	00000000 sbrkr.c
00000000 l    df *ABS*	00000000 stdio.c
00000000 l    df *ABS*	00000000 writer.c
00000000 l    df *ABS*	00000000 mallocr.c
00000000 l    df *ABS*	00000000 closer.c
00000000 l    df *ABS*	00000000 fclose.c
00000000 l    df *ABS*	00000000 fstatr.c
00000000 l    df *ABS*	00000000 int_errno.c
00000000 l    df *ABS*	00000000 isattyr.c
00000000 l    df *ABS*	00000000 lseekr.c
00000000 l    df *ABS*	00000000 readr.c
00000000 l    df *ABS*	00000000 libgcc2.c
00000000 l    df *ABS*	00000000 libgcc2.c
00000000 l    df *ABS*	00000000 dp-bit.c
00000000 l    df *ABS*	00000000 dp-bit.c
00000000 l    df *ABS*	00000000 dp-bit.c
00000000 l    df *ABS*	00000000 dp-bit.c
00000000 l    df *ABS*	00000000 dp-bit.c
00000000 l    df *ABS*	00000000 dp-bit.c
00000000 l    df *ABS*	00000000 libgcc2.c
00000000 l    df *ABS*	00000000 alt_close.c
0200d2ac l     F .text	00000060 alt_get_errno
00000000 l    df *ABS*	00000000 alt_dev.c
0200d30c l     F .text	0000002c alt_dev_null_write
00000000 l    df *ABS*	00000000 alt_errno.c
00000000 l    df *ABS*	00000000 alt_fstat.c
0200d410 l     F .text	00000060 alt_get_errno
00000000 l    df *ABS*	00000000 alt_irq_register.c
00000000 l    df *ABS*	00000000 alt_irq_vars.c
00000000 l    df *ABS*	00000000 alt_isatty.c
0200d6f4 l     F .text	00000060 alt_get_errno
00000000 l    df *ABS*	00000000 alt_load.c
0200d7d4 l     F .text	0000006c alt_load_section
00000000 l    df *ABS*	00000000 alt_lseek.c
0200d934 l     F .text	00000060 alt_get_errno
00000000 l    df *ABS*	00000000 alt_main.c
00000000 l    df *ABS*	00000000 alt_malloc_lock.c
00000000 l    df *ABS*	00000000 alt_read.c
0200db64 l     F .text	00000060 alt_get_errno
00000000 l    df *ABS*	00000000 alt_release_fd.c
00000000 l    df *ABS*	00000000 alt_sbrk.c
020135d0 l     O .rwdata	00000004 heap_end
00000000 l    df *ABS*	00000000 alt_usleep.c
00000000 l    df *ABS*	00000000 alt_write.c
0200de4c l     F .text	00000060 alt_get_errno
00000000 l    df *ABS*	00000000 alt_sys_init.c
020123e4 l     O .rwdata	00001060 jtag_uart_0
02013444 l     O .rwdata	00000120 lcd_display
0200df50 l     F .text	00000038 alt_dev_reg
00000000 l    df *ABS*	00000000 altera_avalon_jtag_uart_fd.c
00000000 l    df *ABS*	00000000 altera_avalon_jtag_uart_init.c
0200e190 l     F .text	00000228 altera_avalon_jtag_uart_irq
0200e3b8 l     F .text	000000b0 altera_avalon_jtag_uart_timeout
00000000 l    df *ABS*	00000000 altera_avalon_jtag_uart_ioctl.c
00000000 l    df *ABS*	00000000 altera_avalon_jtag_uart_read.c
00000000 l    df *ABS*	00000000 altera_avalon_jtag_uart_write.c
00000000 l    df *ABS*	00000000 altera_avalon_lcd_16207.c
020135d4 l     O .rwdata	00000004 colstart
0200ea34 l     F .text	000000b8 lcd_write_command
0200eaec l     F .text	000000d4 lcd_write_data
0200ebc0 l     F .text	000000d8 lcd_clear_screen
0200ec98 l     F .text	00000214 lcd_repaint_screen
0200eeac l     F .text	000000e0 lcd_scroll_up
0200ef8c l     F .text	000002e4 lcd_handle_escape
0200f7ac l     F .text	000000cc alt_lcd_16207_timeout
00000000 l    df *ABS*	00000000 altera_avalon_lcd_16207_fd.c
00000000 l    df *ABS*	00000000 altera_avalon_timer_sc.c
0200fa0c l     F .text	00000070 alt_avalon_timer_sc_irq
00000000 l    df *ABS*	00000000 alt_alarm_start.c
00000000 l    df *ABS*	00000000 alt_busy_sleep.c
00000000 l    df *ABS*	00000000 alt_dcache_flush_all.c
00000000 l    df *ABS*	00000000 alt_dev_llist_insert.c
0200fe8c l     F .text	00000060 alt_get_errno
00000000 l    df *ABS*	00000000 alt_do_ctors.c
00000000 l    df *ABS*	00000000 alt_do_dtors.c
00000000 l    df *ABS*	00000000 alt_icache_flush_all.c
00000000 l    df *ABS*	00000000 alt_iic.c
00000000 l    df *ABS*	00000000 alt_iic_isr_register.c
00000000 l    df *ABS*	00000000 alt_io_redirect.c
020102b0 l     F .text	000000d8 alt_open_fd
00000000 l    df *ABS*	00000000 alt_open.c
02010400 l     F .text	000000f8 alt_file_locked
02010684 l     F .text	00000060 alt_get_errno
00000000 l    df *ABS*	00000000 alt_tick.c
00000000 l    df *ABS*	00000000 altera_nios2_irq.c
00000000 l    df *ABS*	00000000 alt_find_dev.c
00000000 l    df *ABS*	00000000 alt_find_file.c
00000000 l    df *ABS*	00000000 alt_get_fd.c
00000000 l    df *ABS*	00000000 alt_icache_flush.c
00000000 l    df *ABS*	00000000 atexit.c
00000000 l    df *ABS*	00000000 ctype_.c
020117a5 l     O .rodata	00000180 _ctype_b
00000000 l    df *ABS*	00000000 exit.c
00000000 l    df *ABS*	00000000 memcmp.c
00000000 l    df *ABS*	00000000 __atexit.c
00000000 l    df *ABS*	00000000 __call_atexit.c
02010db0 l     F .text	00000004 register_fini
00000000 l    df *ABS*	00000000 alt_exit.c
02010f64 l     F .text	00000040 alt_sim_halt
0200a238 g     F .text	00000094 _mprec_log10
0200a324 g     F .text	00000088 __any_on
0200ba20 g     F .text	00000070 _isatty_r
02011628 g     O .rodata	00000028 __mprec_tinytens
0200d994 g     F .text	0000006c alt_main
0200493c g     F .text	0000008c strcpy
020152a8 g     O .bss	00000001 BS_BootSig_32
020152ac g     O .bss	00000004 FAT32ClusEntryVal
020047cc g     F .text	000000a0 _puts_r
0202fce8 g     O .bss	00000100 alt_irq
0200ba90 g     F .text	00000078 _lseek_r
020152b0 g     O .bss	00000001 MBR_Bootable
020135e4 g       *ABS*	00000000 __flash_rwdata_start
0200ce68 g     F .text	00000088 __eqdf2
02013596 g     O .rwdata	00000005 acmd51
0202ff78 g       *ABS*	00000000 __alt_heap_start
020014b4 g     F .text	000001a4 get_rel_sector
02004754 g     F .text	00000044 printf
020152b1 g     O .bss	00000008 BS_FilSysType_16
020152b9 g     O .bss	00000001 BPB_SecPerClus
0200b594 g     F .text	00000068 __sseek
02008548 g     F .text	000000a4 __sinit
02009254 g     F .text	00000084 _setlocale_r
02008648 g     F .text	0000009c __sfmoreglue
0200da20 g     F .text	00000020 __malloc_unlock
02001f04 g     F .text	00000174 nextsong
020153f8 g     O .bss	00004e20 cc
0200072c g     F .text	00000010 I2C_Read_Ctrl
02009d4c g     F .text	000000e0 memmove
02008638 g     F .text	00000010 _cleanup
0200a3ac g     F .text	000000bc _Balloc
02002cd8 g     F .text	00000148 reverse
020152bc g     O .bss	00000004 BPB_RootEntCnt
020002dc g     F .text	000000f8 LCD_Test
02003bb8 g     F .text	00000088 __gtdf2
00000000  w      *UND*	00000000 __errno
02000000 g     F .entry	0000001c __reset
020152c0 g     O .bss	00000004 FATOffset
02000de4 g     F .text	00000474 SD_card_init
0200327c g     F .text	00000214 ceil
02000020 g       *ABS*	00000000 __flash_exceptions_start
0200b9ac g     F .text	00000074 _fstat_r
020153b4 g     O .bss	00000004 errno
02003490 g     F .text	00000224 floor
02001258 g     F .text	0000025c SD_read_lba
020153c0 g     O .bss	00000004 alt_argv
0201b564 g       *ABS*	00000000 _gp
0200dcf8 g     F .text	00000030 usleep
020152c4 g     O .bss	00000004 BPB_RootClus
02012264 g     O .rwdata	00000180 alt_fd_list
020152c8 g     O .bss	00000004 BPB_ExtFlags
02000c50 g     F .text	00000194 info_bs
0201a218 g     O .bss	00000014 response_buffer
020108a8 g     F .text	00000094 alt_find_dev
02009cac g     F .text	000000a0 memcpy
020152cc g     O .bss	00000004 FirstRootDirSecNum
0200862c g     F .text	0000000c _cleanup_r
02003c40 g     F .text	000000f8 __floatsidf
02010388 g     F .text	00000078 alt_io_redirect
0200d000 g     F .text	00000088 __ltdf2
02011034 g       *ABS*	00000000 __DTOR_END__
0200486c g     F .text	00000014 puts
020152d0 g     O .bss	00000001 BS_DrvNum_32
02010888 g     F .text	00000020 altera_nios2_irq_init
0200a188 g     F .text	000000b0 __ratio
020009f4 g     F .text	000001ec response_R
02000be0 g     F .text	0000004c Ncc
0200e5d0 g     F .text	00000224 altera_avalon_jtag_uart_read
00000000  w      *UND*	00000000 malloc
02004798 g     F .text	00000034 _printf_r
020040e0 g     F .text	00000008 __udivsi3
0200d630 g     F .text	000000c4 isatty
020152d4 g     O .bss	00000004 BPB_SecPerTrk
02011538 g     O .rodata	000000c8 __mprec_tens
020152d8 g     O .bss	00000004 BPB_HiddSec
02009230 g     F .text	00000008 __locale_charset
02010b2c g     F .text	00000090 alt_icache_flush
020153a8 g     O .bss	00000004 __malloc_top_pad
020135a4 g     O .rwdata	00000004 __mb_cur_max
02009238 g     F .text	0000000c _localeconv_r
020152dc g     O .bss	00000004 mask
0200ab10 g     F .text	0000003c __i2b
02008c14 g     F .text	0000049c __sfvwrite_r
020152e0 g     O .bss	00000008 BS_FilSysType_32
020152e8 g     O .bss	00000001 MBR_Partition_Type
0200b51c g     F .text	00000070 _sbrk_r
0200bb08 g     F .text	00000078 _read_r
02011e28 g     O .rwdata	0000000c __lc_ctype
020135c4 g     O .rwdata	00000004 alt_max_fd
020044bc g     F .text	00000138 __unpack_d
0200b888 g     F .text	00000110 _fclose_r
02013582 g     O .rwdata	00000005 cmd16
020084ac g     F .text	00000034 fflush
020153ac g     O .bss	00000004 __malloc_max_sbrked_mem
020152e9 g     O .bss	00000003 BS_JmpBoot
020152ec g     O .bss	00000004 FirstDataSector
0200d470 g     F .text	000001c0 alt_irq_register
02000860 g     F .text	0000003c isEOF
02003b44 g     F .text	00000074 __adddf3
020152f0 g     O .bss	00000001 BPB_NumFATs
0200a068 g     F .text	00000120 __b2d
0200c1ec g     F .text	00000660 __umoddi3
020152f4 g     O .bss	00000004 BPB_FATSz16
0200d840 g     F .text	000000f4 lseek
020135a0 g     O .rwdata	00000004 _global_impure_ptr
020152f8 g     O .bss	00000004 FAT16ClusEntryVal
0200aeb8 g     F .text	000005f4 _realloc_r
0202ff78 g       *ABS*	00000000 __bss_end
020101b8 g     F .text	000000f8 alt_iic_isr_register
0201077c g     F .text	0000010c alt_tick
0200bb80 g     F .text	0000066c __udivdi3
02011600 g     O .rodata	00000028 __mprec_bigtens
0200ad98 g     F .text	00000120 __s2b
02003e10 g     F .text	00000194 __floatunsidf
02013569 g     O .rwdata	00000005 cmd55
02009f88 g     F .text	00000060 __mcmp
020152fc g     O .bss	00000004 ThisFATEntOffset
02013564 g     O .rwdata	00000005 cmd0
020135e0 g     O .rwdata	00000004 __ctype_ptr
02008614 g     F .text	00000018 __fp_lock_all
02010170 g     F .text	00000048 alt_ic_irq_enabled
020106e4 g     F .text	00000098 alt_alarm_stop
02013591 g     O .rwdata	00000005 acmd41
020153b8 g     O .bss	00000004 alt_irq_active
02000808 g     F .text	00000028 I2C_Init
020000ec g     F .exceptions	000000c8 alt_irq_handler
0201223c g     O .rwdata	00000028 alt_dev_null
02000504 g     F .text	000001f8 LCD_Display
020003d4 g     F .text	00000130 LCD_File_Buffering
0200fdbc g     F .text	0000001c alt_dcache_flush_all
02009e54 g     F .text	00000070 __hi0bits
02003d38 g     F .text	000000d8 __fixdfsi
02000790 g     F .text	0000001c I2C_Write_Period
02015300 g     O .bss	00000004 BS_VOLID_16
020135e4 g       *ABS*	00000000 __ram_rwdata_end
020135bc g     O .rwdata	00000008 alt_dev_list
0200dd28 g     F .text	00000124 write
02011928 g       *ABS*	00000000 __ram_rodata_end
0200d338 g     F .text	000000d8 fstat
0200ac78 g     F .text	00000120 __pow5mult
0201539c g     O .bss	00000004 __nlocale_changed
02001658 g     F .text	00000440 search_for_filetype
020040e8 g     F .text	00000008 __umodsi3
0202ff78 g       *ABS*	00000000 end
02015304 g     O .bss	00000004 BPB_BytsPerSec
0200f270 g     F .text	0000053c altera_avalon_lcd_16207_write
0201357d g     O .rwdata	00000005 cmd9
02015308 g     O .bss	00000004 BPB_FATSz32
0200e0d0 g     F .text	000000c0 altera_avalon_jtag_uart_init
02011030 g       *ABS*	00000000 __CTOR_LIST__
02800000 g       *ABS*	00000000 __alt_stack_pointer
0200fa7c g     F .text	00000090 alt_avalon_timer_sc_init
02004128 g     F .text	00000080 __clzsi2
0200e7f4 g     F .text	00000240 altera_avalon_jtag_uart_write
02008538 g     F .text	00000004 __sfp_lock_acquire
02009bc8 g     F .text	000000e4 memchr
02004a94 g     F .text	00001ec4 ___vfprintf_internal_r
02008900 g     F .text	00000314 _free_r
0201a22c g     O .bss	0000001c df
0201a248 g     O .bss	0000000b BS_VOLLab_32
02010db4 g     F .text	000001b0 __call_exitprocs
020027fc g     F .text	00000130 half_speed
020153a0 g     O .bss	00000004 __mlocale_changed
020135b0 g     O .rwdata	00000004 __malloc_sbrk_base
020001b4 g     F .text	0000003c _start
020153c8 g     O .bss	00000004 _alt_tick_rate
0200a770 g     F .text	0000014c __lshift
020025a0 g     F .text	00000108 init_mbr
020153cc g     O .bss	00000004 _alt_nticks
0201530c g     O .bss	00000004 FATSz
0200da40 g     F .text	00000124 read
0200dee0 g     F .text	00000070 alt_sys_init
02015310 g     O .bss	00000004 BPB_BkBootSec
02010c7c g     F .text	00000134 __register_exitproc
02015314 g     O .bss	00000004 FAT12ClusEntryVal
0201a253 g     O .bss	00000200 buffer
02015318 g     O .bss	00000001 BS_BootSig_16
0200073c g     F .text	00000024 I2C_Read_Period
02013587 g     O .rwdata	00000005 cmd17
0200a8bc g     F .text	00000254 __multiply
0200e468 g     F .text	00000074 altera_avalon_jtag_uart_close
020040f0 g     F .text	00000038 __mulsi3
02011928 g       *ABS*	00000000 __ram_rwdata_start
02011034 g       *ABS*	00000000 __ram_rodata_start
020153d0 g     O .bss	00000028 __malloc_current_mallinfo
0200a468 g     F .text	0000017c __d2b
0200df88 g     F .text	00000058 altera_avalon_jtag_uart_read_fd
02010a5c g     F .text	000000d0 alt_get_fd
02000780 g     F .text	00000010 I2C_Write_Ctrl
0200fc60 g     F .text	0000015c alt_busy_sleep
020045f4 g     F .text	000000c8 __fpcmp_parts_d
0201531c g     O .bss	00000004 FATClusEntryVal
0200b818 g     F .text	00000070 _close_r
0200070c g     F .text	00000010 I2C_Read_Status
02010c08 g     F .text	00000074 memcmp
0200e038 g     F .text	00000048 altera_avalon_jtag_uart_close_fd
0202ff78 g       *ABS*	00000000 __alt_stack_base
0201a453 g     O .bss	00015888 dlybuf
0200e080 g     F .text	00000050 altera_avalon_jtag_uart_ioctl_fd
0200697c g     F .text	0000013c __swsetup_r
0200cc10 g     F .text	00000258 __divdf3
020086e4 g     F .text	000000f0 __sfp
0200a2cc g     F .text	00000058 __copybits
0200071c g     F .text	00000010 I2C_Read_RX
02015320 g     O .bss	00000004 button2
02011e34 g     O .rwdata	00000408 __malloc_av_
02008544 g     F .text	00000004 __sinit_lock_release
0200c84c g     F .text	000003c4 __muldf3
0200b678 g     F .text	00000060 __sread
0201093c g     F .text	00000120 alt_find_file
0200fdd8 g     F .text	000000b4 alt_dev_llist_insert
0200da00 g     F .text	00000020 __malloc_lock
0200dc3c g     F .text	000000bc sbrk
020082b0 g     F .text	000001fc _fflush_r
0200b750 g     F .text	000000c8 _calloc_r
02015324 g     O .bss	00000004 BPB_TotSec16
02015328 g     O .bss	00000005 cmd_buffer
0201532d g     O .bss	00000001 read_status
02011928 g     O .rwdata	00000100 __divsi3_table
020152a0 g       *ABS*	00000000 __bss_start
0201358c g     O .rwdata	00000005 acmd6
02000204 g     F .text	00000078 LCD_Init
0201356e g     O .rwdata	00000005 cmd2
020046bc g     F .text	00000098 memset
0201532e g     O .bss	00000008 BS_OEMName
02002e20 g     F .text	000002fc main
020153c4 g     O .bss	00000004 alt_envp
020153b0 g     O .bss	00000004 __malloc_max_total_mem
0200dfe0 g     F .text	00000058 altera_avalon_jtag_uart_write_fd
0200f878 g     F .text	0000013c altera_avalon_lcd_16207_init
020001f0 g     F .text	00000014 LCD_Line2
0200b58c g     F .text	00000008 __sclose
02800000 g       *ABS*	00000000 __alt_heap_limit
0200b998 g     F .text	00000014 fclose
0202fde8 g     O .bss	00000190 _atexit0
02006cfc g     F .text	000015b4 _dtoa_r
02009488 g     F .text	00000740 _malloc_r
02015336 g     O .bss	00000006 FATType
0201533c g     O .bss	00000004 ThisFATSecNum
020135c8 g     O .rwdata	00000004 alt_errno
02009178 g     F .text	000000b8 _fwalk
020152a4 g     O .bss	00000004 file_number
02015340 g     O .bss	00000004 button3
02004020 g     F .text	00000060 __divsi3
02015344 g     O .bss	00000004 MBR_Partition_Len
02011358 g     O .rodata	00000014 __thenan_df
020087d4 g     F .text	0000012c _malloc_trim_r
02011034 g       *ABS*	00000000 __CTOR_END__
02004880 g     F .text	000000bc strcmp
02011034 g       *ABS*	00000000 __flash_rodata_start
02011034 g       *ABS*	00000000 __DTOR_LIST__
02015348 g     O .bss	00000003 MBR_End_End
02002a80 g     F .text	00000258 delay
0200cef0 g     F .text	00000088 __nedf2
0200deac g     F .text	00000034 alt_irq_init
0200027c g     F .text	00000060 LCD_Show_Text
0200dbc4 g     F .text	00000078 alt_release_fd
02013573 g     O .rwdata	00000005 cmd3
0201136c g     O .rodata	00000100 __clz_tab
020153a4 g     O .bss	00000004 _PathLocale
02000770 g     F .text	00000010 I2C_Write_TX
02010bbc g     F .text	00000014 atexit
0200b6d8 g     F .text	00000078 _write_r
020092d8 g     F .text	0000001c setlocale
0201359c g     O .rwdata	00000004 _impure_ptr
020153bc g     O .bss	00000004 alt_argc
0200ff50 g     F .text	00000064 _do_dtors
0201534c g     O .bss	00000004 sw
020007ac g     F .text	0000005c I2C_Send
02015350 g     O .bss	00000004 BPB_TotSec32
02000000 g       *ABS*	00000000 __alt_mem_sdram_0
02000020 g       .exceptions	00000000 alt_irq_entry
02009fe8 g     F .text	00000080 __ulp
0200b4ac g     F .text	00000040 __isinfd
020085fc g     F .text	00000018 __fp_unlock_all
0200f9b4 g     F .text	00000058 altera_avalon_lcd_16207_write_fd
020135b4 g     O .rwdata	00000008 alt_fs_list
02015354 g     O .bss	00000004 DataSec
02002078 g     F .text	00000528 init_bs
02015358 g     O .bss	00000004 TotSec
0201535c g     O .bss	00000004 CountofClusters
020008f0 g     F .text	00000104 send_cmd
02000020 g       *ABS*	00000000 __ram_exceptions_start
02009244 g     F .text	00000010 localeconv
020152a0 g     O .bss	00000004 file_count
02015360 g     O .bss	00000004 length_cc
02001a98 g     F .text	0000020c CalcFATSecAndOffset
0200ffe4 g     F .text	00000050 alt_ic_isr_register
02015364 g     O .bss	00000004 button1
020135e4 g       *ABS*	00000000 _edata
0202ff78 g       *ABS*	00000000 _end
02015368 g     O .bss	00000004 RootDirSectors
020001b4 g       *ABS*	00000000 __ram_exceptions_end
0200e4dc g     F .text	000000f4 altera_avalon_jtag_uart_ioctl
020100d0 g     F .text	000000a0 alt_ic_irq_disable
0201536c g     O .bss	00000004 BPB_RsvdSecCnt
02015370 g     O .bss	00000002 RCA
0200b5fc g     F .text	0000007c __swrite
020135ac g     O .rwdata	00000004 __malloc_trim_threshold
02010bd0 g     F .text	00000038 exit
020090b0 g     F .text	000000c8 _fwalk_reent
0200a5e4 g     F .text	0000018c __mdiff
02015374 g     O .bss	00000004 BPB_NumHeads
02004080 g     F .text	00000060 __modsi3
02800000 g       *ABS*	00000000 __alt_data_end
02000020 g     F .exceptions	00000000 alt_exception
0200853c g     F .text	00000004 __sfp_lock_release
02015378 g     O .bss	00000004 BS_VOLID_32
020116a4 g     O .rodata	00000101 _ctype_
020006fc g     F .text	00000010 I2C_Read_CMD
02013578 g     O .rwdata	00000005 cmd7
0201537c g     O .bss	00000001 BS_DrvNum_16
02010fa4 g     F .text	00000020 _exit
0200b4ec g     F .text	00000030 __isnand
0200fb0c g     F .text	00000154 alt_alarm_start
0200d088 g     F .text	00000124 __muldi3
02000830 g     F .text	00000030 FirstSectorofCluster
020092f4 g     F .text	00000194 __smakebuf_r
02015380 g     O .bss	00000004 prevsw
020049c8 g     F .text	00000074 strlen
02015384 g     O .bss	00000004 BPB_FSInfo
020104f8 g     F .text	0000018c open
02015388 g     O .bss	00000001 BPB_Media
0200cf78 g     F .text	00000088 __gedf2
0201538c g     O .bss	00000004 stop
02015390 g     O .bss	00000003 MBR_Start_Sector
0200311c g     F .text	00000160 init_audio_codec
0200ffb4 g     F .text	00000030 alt_icache_flush_all
0200292c g     F .text	00000154 normal_speed
020135cc g     O .rwdata	00000004 alt_priority_mask
02001d84 g     F .text	00000180 prevsong
02015394 g     O .bss	00000004 BPB_FSVer
02010034 g     F .text	0000009c alt_ic_irq_enable
02006958 g     F .text	00000024 __vfprintf_internal
0202fcdb g     O .bss	0000000b BS_VOLLab_16
02003ac4 g     F .text	00000080 __subdf3
02000760 g     F .text	00000010 I2C_Write_CMD
02009ec4 g     F .text	000000c4 __lo0bits
020135d8 g     O .rwdata	00000008 alt_alarm_list
0200feec g     F .text	00000064 _do_ctors
02000c2c g     F .text	00000024 Ncr
02001ca4 g     F .text	000000e0 build_cluster_chain
020026a8 g     F .text	00000154 double_speed
0200d1ac g     F .text	00000100 close
0200d754 g     F .text	00000080 alt_load
020041a8 g     F .text	00000314 __pack_d
02015398 g     O .bss	00000004 MBR_BS_Location
00000000  w      *UND*	00000000 free
02008540 g     F .text	00000004 __sinit_lock_acquire
0200ab4c g     F .text	0000012c __multadd
02009e2c g     F .text	00000028 _Bfree



Disassembly of section .entry:

02000000 <__reset>:
#if NIOS2_ICACHE_SIZE > 0 && defined(ALT_ALLOW_CODE_AT_RESET) && !defined(ALT_SIM_OPTIMIZE)
    /* Assume the instruction cache size is always a power of two. */
#if NIOS2_ICACHE_SIZE > 0x8000
    movhi r2, %hi(NIOS2_ICACHE_SIZE)
#else
    movui r2, NIOS2_ICACHE_SIZE
 2000000:	00840014 	movui	r2,4096
#endif

0:
    initi r2
 2000004:	1001483a 	initi	r2
    addi r2, r2, -NIOS2_ICACHE_LINE_SIZE
 2000008:	10bff804 	addi	r2,r2,-32
    bgt r2, zero, 0b
 200000c:	00bffd16 	blt	zero,r2,2000004 <__reset+0x4>
 * Jump to the _start entry point in the .text section if reset code
 * is allowed or if optimizing for RTL simulation.
 */
#if defined(ALT_ALLOW_CODE_AT_RESET) || defined(ALT_SIM_OPTIMIZE)
    /* Jump to the _start entry point in the .text section. */
    movhi r1, %hi(_start)
 2000010:	00408034 	movhi	at,512
    ori r1, r1, %lo(_start)
 2000014:	08406d14 	ori	at,at,436
    jmp r1
 2000018:	0800683a 	jmp	at
 200001c:	00000000 	call	0 <__reset-0x2000000>

Disassembly of section .exceptions:

02000020 <alt_exception>:
         * Process an exception.  For all exceptions we must preserve all
         * caller saved registers on the stack (See the Nios2 ABI
         * documentation for details).
         */

        addi  sp, sp, -76
 2000020:	deffed04 	addi	sp,sp,-76

#endif

#endif

        stw   ra,  0(sp)
 2000024:	dfc00015 	stw	ra,0(sp)
        /*
         * Leave a gap in the stack frame at 4(sp) for the muldiv handler to
         * store zero into.
         */

        stw   r1,   8(sp)
 2000028:	d8400215 	stw	at,8(sp)
        stw   r2,  12(sp)
 200002c:	d8800315 	stw	r2,12(sp)
        stw   r3,  16(sp)
 2000030:	d8c00415 	stw	r3,16(sp)
        stw   r4,  20(sp)
 2000034:	d9000515 	stw	r4,20(sp)
        stw   r5,  24(sp)
 2000038:	d9400615 	stw	r5,24(sp)
        stw   r6,  28(sp)
 200003c:	d9800715 	stw	r6,28(sp)
        stw   r7,  32(sp)
 2000040:	d9c00815 	stw	r7,32(sp)

        rdctl r5, estatus
 2000044:	000b307a 	rdctl	r5,estatus

        stw   r8,  36(sp)
 2000048:	da000915 	stw	r8,36(sp)
        stw   r9,  40(sp)
 200004c:	da400a15 	stw	r9,40(sp)
        stw   r10, 44(sp)
 2000050:	da800b15 	stw	r10,44(sp)
        stw   r11, 48(sp)
 2000054:	dac00c15 	stw	r11,48(sp)
        stw   r12, 52(sp)
 2000058:	db000d15 	stw	r12,52(sp)
        stw   r13, 56(sp)
 200005c:	db400e15 	stw	r13,56(sp)
        stw   r14, 60(sp)
 2000060:	db800f15 	stw	r14,60(sp)
        stw   r15, 64(sp)
 2000064:	dbc01015 	stw	r15,64(sp)
        /*
         * ea-4 contains the address of the instruction being executed
         * when the exception occured. For interrupt exceptions, we will
         * will be re-issue the isntruction. Store it in 72(sp)
         */
        stw   r5,  68(sp)  /* estatus */
 2000068:	d9401115 	stw	r5,68(sp)
        addi  r15, ea, -4  /* instruction that caused exception */
 200006c:	ebffff04 	addi	r15,ea,-4
        stw   r15,  72(sp)
 2000070:	dbc01215 	stw	r15,72(sp)
#else
        /*
         * Test to see if the exception was a software exception or caused 
         * by an external interrupt, and vector accordingly.
         */
        rdctl r4, ipending
 2000074:	0009313a 	rdctl	r4,ipending
        andi  r2, r5, 1
 2000078:	2880004c 	andi	r2,r5,1
        beq   r2, zero, .Lnot_irq
 200007c:	10000326 	beq	r2,zero,200008c <alt_exception+0x6c>
        beq   r4, zero, .Lnot_irq
 2000080:	20000226 	beq	r4,zero,200008c <alt_exception+0x6c>
        /*
         * Now that all necessary registers have been preserved, call 
         * alt_irq_handler() to process the interrupts.
         */

        call alt_irq_handler
 2000084:	20000ec0 	call	20000ec <alt_irq_handler>

        .section .exceptions.irqreturn, "xa"

        br    .Lexception_exit
 2000088:	00000306 	br	2000098 <alt_exception+0x78>
         * upon completion, so we write ea (address of instruction *after*
         * the one where the exception occured) into 72(sp). The actual
         * instruction that caused the exception is written in r2, which these
         * handlers will utilize.
         */
        stw   ea,  72(sp)  /* Don't re-issue */
 200008c:	df401215 	stw	ea,72(sp)
        ldw   r2, -4(ea)   /* Instruction that caused exception */
 2000090:	e8bfff17 	ldw	r2,-4(ea)
#ifdef NIOS2_HAS_DEBUG_STUB
       /*
        *  Either tell the user now (if there is a debugger attached) or go into
        *  the debug monitor which will loop until a debugger is attached.
        */
        break
 2000094:	003da03a 	break	0
        /* 
         * Restore the saved registers, so that all general purpose registers 
         * have been restored to their state at the time the interrupt occured.
         */

        ldw   r5,  68(sp)
 2000098:	d9401117 	ldw	r5,68(sp)
        ldw   ea,  72(sp)  /* This becomes the PC once eret is executed */
 200009c:	df401217 	ldw	ea,72(sp)
        ldw   ra,   0(sp)
 20000a0:	dfc00017 	ldw	ra,0(sp)

        wrctl estatus, r5
 20000a4:	2801707a 	wrctl	estatus,r5

        ldw   r1,   8(sp)
 20000a8:	d8400217 	ldw	at,8(sp)
        ldw   r2,  12(sp)
 20000ac:	d8800317 	ldw	r2,12(sp)
        ldw   r3,  16(sp)
 20000b0:	d8c00417 	ldw	r3,16(sp)
        ldw   r4,  20(sp)
 20000b4:	d9000517 	ldw	r4,20(sp)
        ldw   r5,  24(sp)
 20000b8:	d9400617 	ldw	r5,24(sp)
        ldw   r6,  28(sp)
 20000bc:	d9800717 	ldw	r6,28(sp)
        ldw   r7,  32(sp)
 20000c0:	d9c00817 	ldw	r7,32(sp)
#ifdef ALT_STACK_CHECK
        ldw   et, %gprel(alt_exception_old_stack_limit)(gp)
#endif
#endif

        ldw   r8,  36(sp)
 20000c4:	da000917 	ldw	r8,36(sp)
        ldw   r9,  40(sp)
 20000c8:	da400a17 	ldw	r9,40(sp)
        ldw   r10, 44(sp)
 20000cc:	da800b17 	ldw	r10,44(sp)
        ldw   r11, 48(sp)
 20000d0:	dac00c17 	ldw	r11,48(sp)
        ldw   r12, 52(sp)
 20000d4:	db000d17 	ldw	r12,52(sp)
        ldw   r13, 56(sp)
 20000d8:	db400e17 	ldw	r13,56(sp)
        ldw   r14, 60(sp)
 20000dc:	db800f17 	ldw	r14,60(sp)
        ldw   r15, 64(sp)
 20000e0:	dbc01017 	ldw	r15,64(sp)
#endif

        ldw   sp,  76(sp)

#else
        addi  sp, sp, 76
 20000e4:	dec01304 	addi	sp,sp,76

        /*
         * Return to the interrupted instruction.
         */

        eret
 20000e8:	ef80083a 	eret

020000ec <alt_irq_handler>:
 * instruction is present if the macro ALT_CI_INTERRUPT_VECTOR defined.
 */

void alt_irq_handler (void) __attribute__ ((section (".exceptions")));
void alt_irq_handler (void)
{
 20000ec:	defff904 	addi	sp,sp,-28
 20000f0:	dfc00615 	stw	ra,24(sp)
 20000f4:	df000515 	stw	fp,20(sp)
 20000f8:	df000504 	addi	fp,sp,20
#ifndef NIOS2_EIC_PRESENT
static ALT_INLINE alt_u32 ALT_ALWAYS_INLINE alt_irq_pending (void)
{
  alt_u32 active;

  NIOS2_READ_IPENDING (active);
 20000fc:	0005313a 	rdctl	r2,ipending
 2000100:	e0bffc15 	stw	r2,-16(fp)

  return active;
 2000104:	e0bffc17 	ldw	r2,-16(fp)
   * Consider the case where the high priority interupt is asserted during
   * the interrupt entry sequence for a lower priority interrupt to see why
   * this is the case.
   */

  active = alt_irq_pending ();
 2000108:	e0bfff15 	stw	r2,-4(fp)

  do
  {
    i = 0;
 200010c:	e03ffd15 	stw	zero,-12(fp)
    mask = 1;
 2000110:	00800044 	movi	r2,1
 2000114:	e0bffe15 	stw	r2,-8(fp)
     * called to clear the interrupt condition.
     */

    do
    {
      if (active & mask)
 2000118:	e0ffff17 	ldw	r3,-4(fp)
 200011c:	e0bffe17 	ldw	r2,-8(fp)
 2000120:	1884703a 	and	r2,r3,r2
 2000124:	1005003a 	cmpeq	r2,r2,zero
 2000128:	1000161e 	bne	r2,zero,2000184 <alt_irq_handler+0x98>
      { 
#ifdef ALT_ENHANCED_INTERRUPT_API_PRESENT
        alt_irq[i].handler(alt_irq[i].context); 
 200012c:	e0bffd17 	ldw	r2,-12(fp)
 2000130:	00c080f4 	movhi	r3,515
 2000134:	18ff3a04 	addi	r3,r3,-792
 2000138:	100490fa 	slli	r2,r2,3
 200013c:	10c5883a 	add	r2,r2,r3
 2000140:	11400017 	ldw	r5,0(r2)
 2000144:	e0bffd17 	ldw	r2,-12(fp)
 2000148:	00c080f4 	movhi	r3,515
 200014c:	18ff3a04 	addi	r3,r3,-792
 2000150:	100490fa 	slli	r2,r2,3
 2000154:	10c5883a 	add	r2,r2,r3
 2000158:	10800104 	addi	r2,r2,4
 200015c:	11000017 	ldw	r4,0(r2)
 2000160:	283ee83a 	callr	r5
#ifndef NIOS2_EIC_PRESENT
static ALT_INLINE alt_u32 ALT_ALWAYS_INLINE alt_irq_pending (void)
{
  alt_u32 active;

  NIOS2_READ_IPENDING (active);
 2000164:	0005313a 	rdctl	r2,ipending
 2000168:	e0bffb15 	stw	r2,-20(fp)

  return active;
 200016c:	e0bffb17 	ldw	r2,-20(fp)
      mask <<= 1;
      i++;

    } while (1);

    active = alt_irq_pending ();
 2000170:	e0bfff15 	stw	r2,-4(fp)
    
  } while (active);
 2000174:	e0bfff17 	ldw	r2,-4(fp)
 2000178:	1004c03a 	cmpne	r2,r2,zero
 200017c:	103fe31e 	bne	r2,zero,200010c <alt_irq_handler+0x20>
 2000180:	00000706 	br	20001a0 <alt_irq_handler+0xb4>
#else
        alt_irq[i].handler(alt_irq[i].context, i); 
#endif
        break;
      }
      mask <<= 1;
 2000184:	e0bffe17 	ldw	r2,-8(fp)
 2000188:	1085883a 	add	r2,r2,r2
 200018c:	e0bffe15 	stw	r2,-8(fp)
      i++;
 2000190:	e0bffd17 	ldw	r2,-12(fp)
 2000194:	10800044 	addi	r2,r2,1
 2000198:	e0bffd15 	stw	r2,-12(fp)

    } while (1);
 200019c:	003fde06 	br	2000118 <alt_irq_handler+0x2c>
  /*
   * Notify the operating system that interrupt processing is complete.
   */ 

  ALT_OS_INT_EXIT();
}
 20001a0:	e037883a 	mov	sp,fp
 20001a4:	dfc00117 	ldw	ra,4(sp)
 20001a8:	df000017 	ldw	fp,0(sp)
 20001ac:	dec00204 	addi	sp,sp,8
 20001b0:	f800283a 	ret

Disassembly of section .text:

020001b4 <_start>:
#if (NIOS2_NUM_OF_SHADOW_REG_SETS == 0)    
    /*
     * Now that the caches are initialized, set up the stack pointer.
     * The value provided by the linker is assumed to be correctly aligned.
     */
    movhi sp, %hi(__alt_stack_pointer)
 20001b4:	06c0a034 	movhi	sp,640
    ori sp, sp, %lo(__alt_stack_pointer)
 20001b8:	dec00014 	ori	sp,sp,0

    /* Set up the global pointer. */
    movhi gp, %hi(_gp)
 20001bc:	06808074 	movhi	gp,513
    ori gp, gp, %lo(_gp)
 20001c0:	d6ad5914 	ori	gp,gp,46436
 */
#ifndef ALT_SIM_OPTIMIZE
    /* Log that the BSS is about to be cleared. */
    ALT_LOG_PUTS(alt_log_msg_bss)

    movhi r2, %hi(__bss_start)
 20001c4:	00808074 	movhi	r2,513
    ori r2, r2, %lo(__bss_start)
 20001c8:	1094a814 	ori	r2,r2,21152

    movhi r3, %hi(__bss_end)
 20001cc:	00c080b4 	movhi	r3,514
    ori r3, r3, %lo(__bss_end)
 20001d0:	18ffde14 	ori	r3,r3,65400

    beq r2, r3, 1f
 20001d4:	10c00326 	beq	r2,r3,20001e4 <_start+0x30>

0:
    stw zero, (r2)
 20001d8:	10000015 	stw	zero,0(r2)
    addi r2, r2, 4
 20001dc:	10800104 	addi	r2,r2,4
    bltu r2, r3, 0b
 20001e0:	10fffd36 	bltu	r2,r3,20001d8 <_start+0x24>
     * section aren't defined until alt_load() has been called).
     */
    mov   et, zero
#endif

    call alt_load
 20001e4:	200d7540 	call	200d754 <alt_load>

    /* Log that alt_main is about to be called. */
    ALT_LOG_PUTS(alt_log_msg_alt_main)

    /* Call the C entry point. It should never return. */
    call alt_main
 20001e8:	200d9940 	call	200d994 <alt_main>

020001ec <alt_after_alt_main>:

    /* Wait in infinite loop in case alt_main does return. */
alt_after_alt_main:
    br alt_after_alt_main
 20001ec:	003fff06 	br	20001ec <alt_after_alt_main>

020001f0 <LCD_Line2>:
 20001f0:	00c03004 	movi	r3,192
 20001f4:	00800404 	movi	r2,16
 20001f8:	10c00035 	stwio	r3,0(r2)
 20001fc:	0101f404 	movi	r4,2000
 2000200:	200dcf81 	jmpi	200dcf8 <usleep>

02000204 <LCD_Init>:
 2000204:	defffd04 	addi	sp,sp,-12
 2000208:	dc800115 	stw	r18,4(sp)
 200020c:	00800e04 	movi	r2,56
 2000210:	04800404 	movi	r18,16
 2000214:	dfc00215 	stw	ra,8(sp)
 2000218:	dc400015 	stw	r17,0(sp)
 200021c:	90800035 	stwio	r2,0(r18)
 2000220:	0441f404 	movi	r17,2000
 2000224:	8809883a 	mov	r4,r17
 2000228:	200dcf80 	call	200dcf8 <usleep>
 200022c:	00c00304 	movi	r3,12
 2000230:	90c00035 	stwio	r3,0(r18)
 2000234:	8809883a 	mov	r4,r17
 2000238:	200dcf80 	call	200dcf8 <usleep>
 200023c:	00c00044 	movi	r3,1
 2000240:	90c00035 	stwio	r3,0(r18)
 2000244:	8809883a 	mov	r4,r17
 2000248:	200dcf80 	call	200dcf8 <usleep>
 200024c:	00c00184 	movi	r3,6
 2000250:	90c00035 	stwio	r3,0(r18)
 2000254:	8809883a 	mov	r4,r17
 2000258:	200dcf80 	call	200dcf8 <usleep>
 200025c:	00c02004 	movi	r3,128
 2000260:	90c00035 	stwio	r3,0(r18)
 2000264:	8809883a 	mov	r4,r17
 2000268:	dfc00217 	ldw	ra,8(sp)
 200026c:	dc800117 	ldw	r18,4(sp)
 2000270:	dc400017 	ldw	r17,0(sp)
 2000274:	dec00304 	addi	sp,sp,12
 2000278:	200dcf81 	jmpi	200dcf8 <usleep>

0200027c <LCD_Show_Text>:
 200027c:	defffc04 	addi	sp,sp,-16
 2000280:	dc800215 	stw	r18,8(sp)
 2000284:	dc400115 	stw	r17,4(sp)
 2000288:	dc000015 	stw	r16,0(sp)
 200028c:	2023883a 	mov	r17,r4
 2000290:	0021883a 	mov	r16,zero
 2000294:	04800604 	movi	r18,24
 2000298:	dfc00315 	stw	ra,12(sp)
 200029c:	00000506 	br	20002b4 <LCD_Show_Text+0x38>
 20002a0:	18800007 	ldb	r2,0(r3)
 20002a4:	90800035 	stwio	r2,0(r18)
 20002a8:	0101f404 	movi	r4,2000
 20002ac:	200dcf80 	call	200dcf8 <usleep>
 20002b0:	84000044 	addi	r16,r16,1
 20002b4:	8809883a 	mov	r4,r17
 20002b8:	20049c80 	call	20049c8 <strlen>
 20002bc:	8c07883a 	add	r3,r17,r16
 20002c0:	80bff736 	bltu	r16,r2,20002a0 <LCD_Show_Text+0x24>
 20002c4:	dfc00317 	ldw	ra,12(sp)
 20002c8:	dc800217 	ldw	r18,8(sp)
 20002cc:	dc400117 	ldw	r17,4(sp)
 20002d0:	dc000017 	ldw	r16,0(sp)
 20002d4:	dec00404 	addi	sp,sp,16
 20002d8:	f800283a 	ret

020002dc <LCD_Test>:
 20002dc:	00808074 	movhi	r2,513
 20002e0:	10840d04 	addi	r2,r2,4148
 20002e4:	00c08074 	movhi	r3,513
 20002e8:	18c41204 	addi	r3,r3,4168
 20002ec:	12400317 	ldw	r9,12(r2)
 20002f0:	11000017 	ldw	r4,0(r2)
 20002f4:	11400117 	ldw	r5,4(r2)
 20002f8:	11800217 	ldw	r6,8(r2)
 20002fc:	1a800317 	ldw	r10,12(r3)
 2000300:	19c00017 	ldw	r7,0(r3)
 2000304:	18800117 	ldw	r2,4(r3)
 2000308:	1a000217 	ldw	r8,8(r3)
 200030c:	defff404 	addi	sp,sp,-48
 2000310:	dc800a15 	stw	r18,40(sp)
 2000314:	dc400915 	stw	r17,36(sp)
 2000318:	dc000815 	stw	r16,32(sp)
 200031c:	dfc00b15 	stw	ra,44(sp)
 2000320:	d9000415 	stw	r4,16(sp)
 2000324:	d9400515 	stw	r5,20(sp)
 2000328:	d9800615 	stw	r6,24(sp)
 200032c:	da400715 	stw	r9,28(sp)
 2000330:	d9c00015 	stw	r7,0(sp)
 2000334:	d8800115 	stw	r2,4(sp)
 2000338:	da000215 	stw	r8,8(sp)
 200033c:	da800315 	stw	r10,12(sp)
 2000340:	0021883a 	mov	r16,zero
 2000344:	20002040 	call	2000204 <LCD_Init>
 2000348:	dc400404 	addi	r17,sp,16
 200034c:	04800604 	movi	r18,24
 2000350:	00000506 	br	2000368 <LCD_Test+0x8c>
 2000354:	18800007 	ldb	r2,0(r3)
 2000358:	90800035 	stwio	r2,0(r18)
 200035c:	0101f404 	movi	r4,2000
 2000360:	200dcf80 	call	200dcf8 <usleep>
 2000364:	84000044 	addi	r16,r16,1
 2000368:	8809883a 	mov	r4,r17
 200036c:	20049c80 	call	20049c8 <strlen>
 2000370:	8c07883a 	add	r3,r17,r16
 2000374:	80bff736 	bltu	r16,r2,2000354 <LCD_Test+0x78>
 2000378:	00c03004 	movi	r3,192
 200037c:	00800404 	movi	r2,16
 2000380:	10c00035 	stwio	r3,0(r2)
 2000384:	0101f404 	movi	r4,2000
 2000388:	200dcf80 	call	200dcf8 <usleep>
 200038c:	0021883a 	mov	r16,zero
 2000390:	04400604 	movi	r17,24
 2000394:	00000506 	br	20003ac <LCD_Test+0xd0>
 2000398:	18800007 	ldb	r2,0(r3)
 200039c:	88800035 	stwio	r2,0(r17)
 20003a0:	0101f404 	movi	r4,2000
 20003a4:	200dcf80 	call	200dcf8 <usleep>
 20003a8:	84000044 	addi	r16,r16,1
 20003ac:	d809883a 	mov	r4,sp
 20003b0:	20049c80 	call	20049c8 <strlen>
 20003b4:	dc07883a 	add	r3,sp,r16
 20003b8:	80bff736 	bltu	r16,r2,2000398 <LCD_Test+0xbc>
 20003bc:	dfc00b17 	ldw	ra,44(sp)
 20003c0:	dc800a17 	ldw	r18,40(sp)
 20003c4:	dc400917 	ldw	r17,36(sp)
 20003c8:	dc000817 	ldw	r16,32(sp)
 20003cc:	dec00c04 	addi	sp,sp,48
 20003d0:	f800283a 	ret

020003d4 <LCD_File_Buffering>:
 20003d4:	defff504 	addi	sp,sp,-44
 20003d8:	dfc00a15 	stw	ra,40(sp)
 20003dc:	dc400815 	stw	r17,32(sp)
 20003e0:	dc800915 	stw	r18,36(sp)
 20003e4:	dc000715 	stw	r16,28(sp)
 20003e8:	00808074 	movhi	r2,513
 20003ec:	10841704 	addi	r2,r2,4188
 20003f0:	13c0020b 	ldhu	r15,8(r2)
 20003f4:	24000283 	ldbu	r16,10(r4)
 20003f8:	10c00017 	ldw	r3,0(r2)
 20003fc:	11400117 	ldw	r5,4(r2)
 2000400:	21800003 	ldbu	r6,0(r4)
 2000404:	20800043 	ldbu	r2,1(r4)
 2000408:	21c00083 	ldbu	r7,2(r4)
 200040c:	220000c3 	ldbu	r8,3(r4)
 2000410:	22400103 	ldbu	r9,4(r4)
 2000414:	22800143 	ldbu	r10,5(r4)
 2000418:	22c00183 	ldbu	r11,6(r4)
 200041c:	230001c3 	ldbu	r12,7(r4)
 2000420:	23400203 	ldbu	r13,8(r4)
 2000424:	23800243 	ldbu	r14,9(r4)
 2000428:	d8c00315 	stw	r3,12(sp)
 200042c:	d9400415 	stw	r5,16(sp)
 2000430:	dbc0050d 	sth	r15,20(sp)
 2000434:	d9800005 	stb	r6,0(sp)
 2000438:	d8800045 	stb	r2,1(sp)
 200043c:	d9c00085 	stb	r7,2(sp)
 2000440:	da0000c5 	stb	r8,3(sp)
 2000444:	da400105 	stb	r9,4(sp)
 2000448:	da800145 	stb	r10,5(sp)
 200044c:	dac00185 	stb	r11,6(sp)
 2000450:	db0001c5 	stb	r12,7(sp)
 2000454:	db400205 	stb	r13,8(sp)
 2000458:	db800245 	stb	r14,9(sp)
 200045c:	dc000285 	stb	r16,10(sp)
 2000460:	d800058d 	sth	zero,22(sp)
 2000464:	d800060d 	sth	zero,24(sp)
 2000468:	0021883a 	mov	r16,zero
 200046c:	d800068d 	sth	zero,26(sp)
 2000470:	d80002c5 	stb	zero,11(sp)
 2000474:	04400604 	movi	r17,24
 2000478:	20002040 	call	2000204 <LCD_Init>
 200047c:	00000506 	br	2000494 <LCD_File_Buffering+0xc0>
 2000480:	18800007 	ldb	r2,0(r3)
 2000484:	88800035 	stwio	r2,0(r17)
 2000488:	0101f404 	movi	r4,2000
 200048c:	200dcf80 	call	200dcf8 <usleep>
 2000490:	84000044 	addi	r16,r16,1
 2000494:	d809883a 	mov	r4,sp
 2000498:	20049c80 	call	20049c8 <strlen>
 200049c:	dc07883a 	add	r3,sp,r16
 20004a0:	80bff736 	bltu	r16,r2,2000480 <LCD_File_Buffering+0xac>
 20004a4:	00c03004 	movi	r3,192
 20004a8:	00800404 	movi	r2,16
 20004ac:	10c00035 	stwio	r3,0(r2)
 20004b0:	0101f404 	movi	r4,2000
 20004b4:	200dcf80 	call	200dcf8 <usleep>
 20004b8:	0021883a 	mov	r16,zero
 20004bc:	dc400304 	addi	r17,sp,12
 20004c0:	04800604 	movi	r18,24
 20004c4:	00000506 	br	20004dc <LCD_File_Buffering+0x108>
 20004c8:	18800007 	ldb	r2,0(r3)
 20004cc:	90800035 	stwio	r2,0(r18)
 20004d0:	0101f404 	movi	r4,2000
 20004d4:	200dcf80 	call	200dcf8 <usleep>
 20004d8:	84000044 	addi	r16,r16,1
 20004dc:	8809883a 	mov	r4,r17
 20004e0:	20049c80 	call	20049c8 <strlen>
 20004e4:	8c07883a 	add	r3,r17,r16
 20004e8:	80bff736 	bltu	r16,r2,20004c8 <LCD_File_Buffering+0xf4>
 20004ec:	dfc00a17 	ldw	ra,40(sp)
 20004f0:	dc800917 	ldw	r18,36(sp)
 20004f4:	dc400817 	ldw	r17,32(sp)
 20004f8:	dc000717 	ldw	r16,28(sp)
 20004fc:	dec00b04 	addi	sp,sp,44
 2000500:	f800283a 	ret

02000504 <LCD_Display>:
 2000504:	defff504 	addi	sp,sp,-44
 2000508:	dfc00a15 	stw	ra,40(sp)
 200050c:	dc800915 	stw	r18,36(sp)
 2000510:	dc400815 	stw	r17,32(sp)
 2000514:	dc000715 	stw	r16,28(sp)
 2000518:	23800283 	ldbu	r14,10(r4)
 200051c:	20800003 	ldbu	r2,0(r4)
 2000520:	20c00043 	ldbu	r3,1(r4)
 2000524:	21800083 	ldbu	r6,2(r4)
 2000528:	21c000c3 	ldbu	r7,3(r4)
 200052c:	22000103 	ldbu	r8,4(r4)
 2000530:	22400143 	ldbu	r9,5(r4)
 2000534:	22800183 	ldbu	r10,6(r4)
 2000538:	22c001c3 	ldbu	r11,7(r4)
 200053c:	23000203 	ldbu	r12,8(r4)
 2000540:	23400243 	ldbu	r13,9(r4)
 2000544:	01000084 	movi	r4,2
 2000548:	d8800005 	stb	r2,0(sp)
 200054c:	d8c00045 	stb	r3,1(sp)
 2000550:	d9800085 	stb	r6,2(sp)
 2000554:	d9c000c5 	stb	r7,3(sp)
 2000558:	da000105 	stb	r8,4(sp)
 200055c:	da400145 	stb	r9,5(sp)
 2000560:	da800185 	stb	r10,6(sp)
 2000564:	dac001c5 	stb	r11,7(sp)
 2000568:	db000205 	stb	r12,8(sp)
 200056c:	db400245 	stb	r13,9(sp)
 2000570:	db800285 	stb	r14,10(sp)
 2000574:	d8000315 	stw	zero,12(sp)
 2000578:	d8000415 	stw	zero,16(sp)
 200057c:	d8000515 	stw	zero,20(sp)
 2000580:	d8000615 	stw	zero,24(sp)
 2000584:	d80002c5 	stb	zero,11(sp)
 2000588:	29003e26 	beq	r5,r4,2000684 <LCD_Display+0x180>
 200058c:	21403116 	blt	r4,r5,2000654 <LCD_Display+0x150>
 2000590:	00800044 	movi	r2,1
 2000594:	28804d26 	beq	r5,r2,20006cc <LCD_Display+0x1c8>
 2000598:	009b5cb4 	movhi	r2,28018
 200059c:	109bd384 	addi	r2,r2,28494
 20005a0:	d8800315 	stw	r2,12(sp)
 20005a4:	00d4c834 	movhi	r3,21280
 20005a8:	18db1844 	addi	r3,r3,27745
 20005ac:	00991974 	movhi	r2,25701
 20005b0:	10995c04 	addi	r2,r2,25968
 20005b4:	d8c00415 	stw	r3,16(sp)
 20005b8:	d8800515 	stw	r2,20(sp)
 20005bc:	d8000605 	stb	zero,24(sp)
 20005c0:	dc800304 	addi	r18,sp,12
 20005c4:	20002040 	call	2000204 <LCD_Init>
 20005c8:	0021883a 	mov	r16,zero
 20005cc:	04400604 	movi	r17,24
 20005d0:	00000506 	br	20005e8 <LCD_Display+0xe4>
 20005d4:	18800007 	ldb	r2,0(r3)
 20005d8:	88800035 	stwio	r2,0(r17)
 20005dc:	0101f404 	movi	r4,2000
 20005e0:	200dcf80 	call	200dcf8 <usleep>
 20005e4:	84000044 	addi	r16,r16,1
 20005e8:	d809883a 	mov	r4,sp
 20005ec:	20049c80 	call	20049c8 <strlen>
 20005f0:	dc07883a 	add	r3,sp,r16
 20005f4:	80bff736 	bltu	r16,r2,20005d4 <LCD_Display+0xd0>
 20005f8:	00c03004 	movi	r3,192
 20005fc:	00800404 	movi	r2,16
 2000600:	10c00035 	stwio	r3,0(r2)
 2000604:	0101f404 	movi	r4,2000
 2000608:	200dcf80 	call	200dcf8 <usleep>
 200060c:	0021883a 	mov	r16,zero
 2000610:	04400604 	movi	r17,24
 2000614:	00000506 	br	200062c <LCD_Display+0x128>
 2000618:	18800007 	ldb	r2,0(r3)
 200061c:	88800035 	stwio	r2,0(r17)
 2000620:	0101f404 	movi	r4,2000
 2000624:	200dcf80 	call	200dcf8 <usleep>
 2000628:	84000044 	addi	r16,r16,1
 200062c:	9009883a 	mov	r4,r18
 2000630:	20049c80 	call	20049c8 <strlen>
 2000634:	9407883a 	add	r3,r18,r16
 2000638:	80bff736 	bltu	r16,r2,2000618 <LCD_Display+0x114>
 200063c:	dfc00a17 	ldw	ra,40(sp)
 2000640:	dc800917 	ldw	r18,36(sp)
 2000644:	dc400817 	ldw	r17,32(sp)
 2000648:	dc000717 	ldw	r16,28(sp)
 200064c:	dec00b04 	addi	sp,sp,44
 2000650:	f800283a 	ret
 2000654:	008000c4 	movi	r2,3
 2000658:	28801526 	beq	r5,r2,20006b0 <LCD_Display+0x1ac>
 200065c:	00800104 	movi	r2,4
 2000660:	28bfcd1e 	bne	r5,r2,2000598 <LCD_Display+0x94>
 2000664:	00995db4 	movhi	r2,25974
 2000668:	10995484 	addi	r2,r2,25938
 200066c:	00c01974 	movhi	r3,101
 2000670:	18dcdc84 	addi	r3,r3,29554
 2000674:	dc800304 	addi	r18,sp,12
 2000678:	d8800315 	stw	r2,12(sp)
 200067c:	d8c00415 	stw	r3,16(sp)
 2000680:	003fd006 	br	20005c4 <LCD_Display+0xc0>
 2000684:	00999b34 	movhi	r2,26220
 2000688:	10985204 	addi	r2,r2,24904
 200068c:	d8800315 	stw	r2,12(sp)
 2000690:	00d95c34 	movhi	r3,25968
 2000694:	18d4c804 	addi	r3,r3,21280
 2000698:	00991944 	movi	r2,25701
 200069c:	dc800304 	addi	r18,sp,12
 20006a0:	d8c00415 	stw	r3,16(sp)
 20006a4:	d880050d 	sth	r2,20(sp)
 20006a8:	d8000585 	stb	zero,22(sp)
 20006ac:	003fc506 	br	20005c4 <LCD_Display+0xc0>
 20006b0:	00985b34 	movhi	r2,24940
 20006b4:	10995104 	addi	r2,r2,25924
 20006b8:	00c01e44 	movi	r3,121
 20006bc:	dc800304 	addi	r18,sp,12
 20006c0:	d8800315 	stw	r2,12(sp)
 20006c4:	d8c0040d 	sth	r3,16(sp)
 20006c8:	003fbe06 	br	20005c4 <LCD_Display+0xc0>
 20006cc:	00989d74 	movhi	r2,25205
 20006d0:	109bd104 	addi	r2,r2,28484
 20006d4:	d8800315 	stw	r2,12(sp)
 20006d8:	00d4c834 	movhi	r3,21280
 20006dc:	18d95b04 	addi	r3,r3,25964
 20006e0:	00991974 	movhi	r2,25701
 20006e4:	10995c04 	addi	r2,r2,25968
 20006e8:	dc800304 	addi	r18,sp,12
 20006ec:	d8c00415 	stw	r3,16(sp)
 20006f0:	d8800515 	stw	r2,20(sp)
 20006f4:	d8000605 	stb	zero,24(sp)
 20006f8:	003fb206 	br	20005c4 <LCD_Display+0xc0>

020006fc <I2C_Read_CMD>:
 20006fc:	00c04404 	movi	r3,272
 2000700:	18800037 	ldwio	r2,0(r3)
 2000704:	10803fcc 	andi	r2,r2,255
 2000708:	f800283a 	ret

0200070c <I2C_Read_Status>:
 200070c:	00c04404 	movi	r3,272
 2000710:	18800037 	ldwio	r2,0(r3)
 2000714:	10803fcc 	andi	r2,r2,255
 2000718:	f800283a 	ret

0200071c <I2C_Read_RX>:
 200071c:	00c04304 	movi	r3,268
 2000720:	18800037 	ldwio	r2,0(r3)
 2000724:	10803fcc 	andi	r2,r2,255
 2000728:	f800283a 	ret

0200072c <I2C_Read_Ctrl>:
 200072c:	00c04204 	movi	r3,264
 2000730:	18800037 	ldwio	r2,0(r3)
 2000734:	10803fcc 	andi	r2,r2,255
 2000738:	f800283a 	ret

0200073c <I2C_Read_Period>:
 200073c:	00804004 	movi	r2,256
 2000740:	11000037 	ldwio	r4,0(r2)
 2000744:	00c04104 	movi	r3,260
 2000748:	18800037 	ldwio	r2,0(r3)
 200074c:	10803fcc 	andi	r2,r2,255
 2000750:	1004943a 	slli	r2,r2,16
 2000754:	21003fcc 	andi	r4,r4,255
 2000758:	1105883a 	add	r2,r2,r4
 200075c:	f800283a 	ret

02000760 <I2C_Write_CMD>:
 2000760:	21003fcc 	andi	r4,r4,255
 2000764:	00804404 	movi	r2,272
 2000768:	11000035 	stwio	r4,0(r2)
 200076c:	f800283a 	ret

02000770 <I2C_Write_TX>:
 2000770:	21003fcc 	andi	r4,r4,255
 2000774:	00804304 	movi	r2,268
 2000778:	11000035 	stwio	r4,0(r2)
 200077c:	f800283a 	ret

02000780 <I2C_Write_Ctrl>:
 2000780:	21003fcc 	andi	r4,r4,255
 2000784:	00804204 	movi	r2,264
 2000788:	11000035 	stwio	r4,0(r2)
 200078c:	f800283a 	ret

02000790 <I2C_Write_Period>:
 2000790:	20c03fcc 	andi	r3,r4,255
 2000794:	00804004 	movi	r2,256
 2000798:	10c00035 	stwio	r3,0(r2)
 200079c:	2008d43a 	srli	r4,r4,16
 20007a0:	00804104 	movi	r2,260
 20007a4:	11000035 	stwio	r4,0(r2)
 20007a8:	f800283a 	ret

020007ac <I2C_Send>:
 20007ac:	21003fcc 	andi	r4,r4,255
 20007b0:	00804304 	movi	r2,268
 20007b4:	11000035 	stwio	r4,0(r2)
 20007b8:	29403fcc 	andi	r5,r5,255
 20007bc:	0007883a 	mov	r3,zero
 20007c0:	28000126 	beq	r5,zero,20007c8 <I2C_Send+0x1c>
 20007c4:	00ffe004 	movi	r3,-128
 20007c8:	30803fcc 	andi	r2,r6,255
 20007cc:	10000126 	beq	r2,zero,20007d4 <I2C_Send+0x28>
 20007d0:	18c01014 	ori	r3,r3,64
 20007d4:	18c00414 	ori	r3,r3,16
 20007d8:	18c03fcc 	andi	r3,r3,255
 20007dc:	00804404 	movi	r2,272
 20007e0:	10c00035 	stwio	r3,0(r2)
 20007e4:	1009883a 	mov	r4,r2
 20007e8:	20800037 	ldwio	r2,0(r4)
 20007ec:	10803fcc 	andi	r2,r2,255
 20007f0:	10c0008c 	andi	r3,r2,2
 20007f4:	183ffc1e 	bne	r3,zero,20007e8 <I2C_Send+0x3c>
 20007f8:	0084303a 	nor	r2,zero,r2
 20007fc:	10803fcc 	andi	r2,r2,255
 2000800:	1004d1fa 	srli	r2,r2,7
 2000804:	f800283a 	ret

02000808 <I2C_Init>:
 2000808:	20c03fcc 	andi	r3,r4,255
 200080c:	00804004 	movi	r2,256
 2000810:	10c00035 	stwio	r3,0(r2)
 2000814:	2008d43a 	srli	r4,r4,16
 2000818:	00804104 	movi	r2,260
 200081c:	11000035 	stwio	r4,0(r2)
 2000820:	00c03004 	movi	r3,192
 2000824:	00804204 	movi	r2,264
 2000828:	10c00035 	stwio	r3,0(r2)
 200082c:	f800283a 	ret

02000830 <FirstSectorofCluster>:
 2000830:	d1675543 	ldbu	r5,-25259(gp)
 2000834:	deffff04 	addi	sp,sp,-4
 2000838:	213fff84 	addi	r4,r4,-2
 200083c:	dfc00015 	stw	ra,0(sp)
 2000840:	20040f00 	call	20040f0 <__mulsi3>
 2000844:	d0e76217 	ldw	r3,-25208(gp)
 2000848:	d1278d17 	ldw	r4,-25036(gp)
 200084c:	1907883a 	add	r3,r3,r4
 2000850:	10c5883a 	add	r2,r2,r3
 2000854:	dfc00017 	ldw	ra,0(sp)
 2000858:	dec00104 	addi	sp,sp,4
 200085c:	f800283a 	ret

02000860 <isEOF>:
 2000860:	d1677e17 	ldw	r5,-25096(gp)
 2000864:	0083fdc4 	movi	r2,4087
 2000868:	00c3fd04 	movi	r3,4084
 200086c:	1105803a 	cmpltu	r2,r2,r4
 2000870:	1940082e 	bgeu	r3,r5,2000894 <isEOF+0x34>
 2000874:	00c40034 	movhi	r3,4096
 2000878:	18fffdc4 	addi	r3,r3,-9
 200087c:	00bffdd4 	movui	r2,65527
 2000880:	1105803a 	cmpltu	r2,r2,r4
 2000884:	1909803a 	cmpltu	r4,r3,r4
 2000888:	00fffd14 	movui	r3,65524
 200088c:	1940012e 	bgeu	r3,r5,2000894 <isEOF+0x34>
 2000890:	2005883a 	mov	r2,r4
 2000894:	10803fcc 	andi	r2,r2,255
 2000898:	f800283a 	ret

0200089c <handle_button_interrupts>:
 200089c:	00801304 	movi	r2,76
 20008a0:	10c00037 	ldwio	r3,0(r2)
 20008a4:	10000035 	stwio	zero,0(r2)
 20008a8:	00800084 	movi	r2,2
 20008ac:	18800a26 	beq	r3,r2,20008d8 <handle_button_interrupts+0x3c>
 20008b0:	10c0050e 	bge	r2,r3,20008c8 <handle_button_interrupts+0x2c>
 20008b4:	00800104 	movi	r2,4
 20008b8:	18800b26 	beq	r3,r2,20008e8 <handle_button_interrupts+0x4c>
 20008bc:	00800204 	movi	r2,8
 20008c0:	18800726 	beq	r3,r2,20008e0 <handle_button_interrupts+0x44>
 20008c4:	f800283a 	ret
 20008c8:	00800044 	movi	r2,1
 20008cc:	18bffd1e 	bne	r3,r2,20008c4 <handle_button_interrupts+0x28>
 20008d0:	d0e78a15 	stw	r3,-25048(gp)
 20008d4:	f800283a 	ret
 20008d8:	d0278015 	stw	zero,-25088(gp)
 20008dc:	f800283a 	ret
 20008e0:	d0277715 	stw	zero,-25124(gp)
 20008e4:	f800283a 	ret
 20008e8:	d0276f15 	stw	zero,-25156(gp)
 20008ec:	f800283a 	ret

020008f0 <send_cmd>:
 20008f0:	00c00044 	movi	r3,1
 20008f4:	00804d04 	movi	r2,308
 20008f8:	10c00035 	stwio	r3,0(r2)
 20008fc:	0019883a 	mov	r12,zero
 2000900:	000f883a 	mov	r7,zero
 2000904:	02405004 	movi	r9,320
 2000908:	02c04c04 	movi	r11,304
 200090c:	02800204 	movi	r10,8
 2000910:	03400144 	movi	r13,5
 2000914:	6105883a 	add	r2,r12,r4
 2000918:	11800003 	ldbu	r6,0(r2)
 200091c:	0011883a 	mov	r8,zero
 2000920:	48000035 	stwio	zero,0(r9)
 2000924:	30803fcc 	andi	r2,r6,255
 2000928:	1080201c 	xori	r2,r2,128
 200092c:	10bfe004 	addi	r2,r2,-128
 2000930:	10002e16 	blt	r2,zero,20009ec <send_cmd+0xfc>
 2000934:	58000035 	stwio	zero,0(r11)
 2000938:	39cb883a 	add	r5,r7,r7
 200093c:	280f883a 	mov	r7,r5
 2000940:	48c00035 	stwio	r3,0(r9)
 2000944:	2984f03a 	xor	r2,r5,r6
 2000948:	10803fcc 	andi	r2,r2,255
 200094c:	1080201c 	xori	r2,r2,128
 2000950:	10bfe004 	addi	r2,r2,-128
 2000954:	318d883a 	add	r6,r6,r6
 2000958:	42000044 	addi	r8,r8,1
 200095c:	10002016 	blt	r2,zero,20009e0 <send_cmd+0xf0>
 2000960:	42bfef1e 	bne	r8,r10,2000920 <send_cmd+0x30>
 2000964:	63000044 	addi	r12,r12,1
 2000968:	39c01fcc 	andi	r7,r7,127
 200096c:	637fe91e 	bne	r12,r13,2000914 <send_cmd+0x24>
 2000970:	38803fcc 	andi	r2,r7,255
 2000974:	1085883a 	add	r2,r2,r2
 2000978:	10800054 	ori	r2,r2,1
 200097c:	1007883a 	mov	r3,r2
 2000980:	1013883a 	mov	r9,r2
 2000984:	0009883a 	mov	r4,zero
 2000988:	01405004 	movi	r5,320
 200098c:	02004c04 	movi	r8,304
 2000990:	01800044 	movi	r6,1
 2000994:	01c00204 	movi	r7,8
 2000998:	00000506 	br	20009b0 <send_cmd+0xc0>
 200099c:	40000035 	stwio	zero,0(r8)
 20009a0:	29800035 	stwio	r6,0(r5)
 20009a4:	21000044 	addi	r4,r4,1
 20009a8:	18c7883a 	add	r3,r3,r3
 20009ac:	21c00a26 	beq	r4,r7,20009d8 <send_cmd+0xe8>
 20009b0:	28000035 	stwio	zero,0(r5)
 20009b4:	18803fcc 	andi	r2,r3,255
 20009b8:	1080201c 	xori	r2,r2,128
 20009bc:	10bfe004 	addi	r2,r2,-128
 20009c0:	103ff60e 	bge	r2,zero,200099c <send_cmd+0xac>
 20009c4:	41800035 	stwio	r6,0(r8)
 20009c8:	29800035 	stwio	r6,0(r5)
 20009cc:	21000044 	addi	r4,r4,1
 20009d0:	18c7883a 	add	r3,r3,r3
 20009d4:	21fff61e 	bne	r4,r7,20009b0 <send_cmd+0xc0>
 20009d8:	48803fcc 	andi	r2,r9,255
 20009dc:	f800283a 	ret
 20009e0:	29c0025c 	xori	r7,r5,9
 20009e4:	42bfce1e 	bne	r8,r10,2000920 <send_cmd+0x30>
 20009e8:	003fde06 	br	2000964 <send_cmd+0x74>
 20009ec:	58c00035 	stwio	r3,0(r11)
 20009f0:	003fd106 	br	2000938 <send_cmd+0x48>

020009f4 <response_R>:
 20009f4:	defffc04 	addi	sp,sp,-16
 20009f8:	000b883a 	mov	r5,zero
 20009fc:	01805004 	movi	r6,320
 2000a00:	02400044 	movi	r9,1
 2000a04:	02004c04 	movi	r8,304
 2000a08:	01c01944 	movi	r7,101
 2000a0c:	dcc00315 	stw	r19,12(sp)
 2000a10:	dc800215 	stw	r18,8(sp)
 2000a14:	dc400115 	stw	r17,4(sp)
 2000a18:	dc000015 	stw	r16,0(sp)
 2000a1c:	00000106 	br	2000a24 <response_R+0x30>
 2000a20:	19c06626 	beq	r3,r7,2000bbc <response_R+0x1c8>
 2000a24:	30000035 	stwio	zero,0(r6)
 2000a28:	32400035 	stwio	r9,0(r6)
 2000a2c:	40800037 	ldwio	r2,0(r8)
 2000a30:	28c03fcc 	andi	r3,r5,255
 2000a34:	29400044 	addi	r5,r5,1
 2000a38:	103ff91e 	bne	r2,zero,2000a20 <response_R+0x2c>
 2000a3c:	24003fcc 	andi	r16,r4,255
 2000a40:	00800084 	movi	r2,2
 2000a44:	80806426 	beq	r16,r2,2000bd8 <response_R+0x1e4>
 2000a48:	00800184 	movi	r2,6
 2000a4c:	14403fcc 	andi	r17,r2,255
 2000a50:	0027883a 	mov	r19,zero
 2000a54:	000b883a 	mov	r5,zero
 2000a58:	0015883a 	mov	r10,zero
 2000a5c:	0017883a 	mov	r11,zero
 2000a60:	0009883a 	mov	r4,zero
 2000a64:	048080b4 	movhi	r18,514
 2000a68:	94a88604 	addi	r18,r18,-24040
 2000a6c:	23003fcc 	andi	r12,r4,255
 2000a70:	60000226 	beq	r12,zero,2000a7c <response_R+0x88>
 2000a74:	6485883a 	add	r2,r12,r18
 2000a78:	12ffffc3 	ldbu	r11,-1(r2)
 2000a7c:	000d883a 	mov	r6,zero
 2000a80:	0011883a 	mov	r8,zero
 2000a84:	02405004 	movi	r9,320
 2000a88:	03800044 	movi	r14,1
 2000a8c:	03404c04 	movi	r13,304
 2000a90:	03c001c4 	movi	r15,7
 2000a94:	60001e1e 	bne	r12,zero,2000b10 <response_R+0x11c>
 2000a98:	48000035 	stwio	zero,0(r9)
 2000a9c:	50803fcc 	andi	r2,r10,255
 2000aa0:	10003526 	beq	r2,zero,2000b78 <response_R+0x184>
 2000aa4:	4211883a 	add	r8,r8,r8
 2000aa8:	52800044 	addi	r10,r10,1
 2000aac:	4b800035 	stwio	r14,0(r9)
 2000ab0:	69c00037 	ldwio	r7,0(r13)
 2000ab4:	31800044 	addi	r6,r6,1
 2000ab8:	30c03fcc 	andi	r3,r6,255
 2000abc:	38000126 	beq	r7,zero,2000ac4 <response_R+0xd0>
 2000ac0:	42000054 	ori	r8,r8,1
 2000ac4:	78fff42e 	bgeu	r15,r3,2000a98 <response_R+0xa4>
 2000ac8:	008000c4 	movi	r2,3
 2000acc:	80802e26 	beq	r16,r2,2000b88 <response_R+0x194>
 2000ad0:	21000044 	addi	r4,r4,1
 2000ad4:	6485883a 	add	r2,r12,r18
 2000ad8:	20c03fcc 	andi	r3,r4,255
 2000adc:	12000005 	stb	r8,0(r2)
 2000ae0:	1c7fe236 	bltu	r3,r17,2000a6c <response_R+0x78>
 2000ae4:	00800044 	movi	r2,1
 2000ae8:	80802f26 	beq	r16,r2,2000ba8 <response_R+0x1b4>
 2000aec:	00800184 	movi	r2,6
 2000af0:	80802d26 	beq	r16,r2,2000ba8 <response_R+0x1b4>
 2000af4:	98803fcc 	andi	r2,r19,255
 2000af8:	dcc00317 	ldw	r19,12(sp)
 2000afc:	dc800217 	ldw	r18,8(sp)
 2000b00:	dc400117 	ldw	r17,4(sp)
 2000b04:	dc000017 	ldw	r16,0(sp)
 2000b08:	dec00404 	addi	sp,sp,16
 2000b0c:	f800283a 	ret
 2000b10:	48000035 	stwio	zero,0(r9)
 2000b14:	50803fcc 	andi	r2,r10,255
 2000b18:	1000151e 	bne	r2,zero,2000b70 <response_R+0x17c>
 2000b1c:	31800044 	addi	r6,r6,1
 2000b20:	52800044 	addi	r10,r10,1
 2000b24:	4b800035 	stwio	r14,0(r9)
 2000b28:	69c00037 	ldwio	r7,0(r13)
 2000b2c:	294b883a 	add	r5,r5,r5
 2000b30:	2ac4f03a 	xor	r2,r5,r11
 2000b34:	10803fcc 	andi	r2,r2,255
 2000b38:	31800044 	addi	r6,r6,1
 2000b3c:	1080201c 	xori	r2,r2,128
 2000b40:	10bfe004 	addi	r2,r2,-128
 2000b44:	30c03fcc 	andi	r3,r6,255
 2000b48:	38000126 	beq	r7,zero,2000b50 <response_R+0x15c>
 2000b4c:	42000054 	ori	r8,r8,1
 2000b50:	280f883a 	mov	r7,r5
 2000b54:	10000a16 	blt	r2,zero,2000b80 <response_R+0x18c>
 2000b58:	39401fcc 	andi	r5,r7,127
 2000b5c:	5ad7883a 	add	r11,r11,r11
 2000b60:	78ffd936 	bltu	r15,r3,2000ac8 <response_R+0xd4>
 2000b64:	48000035 	stwio	zero,0(r9)
 2000b68:	50803fcc 	andi	r2,r10,255
 2000b6c:	103feb26 	beq	r2,zero,2000b1c <response_R+0x128>
 2000b70:	4211883a 	add	r8,r8,r8
 2000b74:	003fea06 	br	2000b20 <response_R+0x12c>
 2000b78:	31800044 	addi	r6,r6,1
 2000b7c:	003fca06 	br	2000aa8 <response_R+0xb4>
 2000b80:	29c0025c 	xori	r7,r5,9
 2000b84:	003ff406 	br	2000b58 <response_R+0x164>
 2000b88:	00800044 	movi	r2,1
 2000b8c:	60bfd01e 	bne	r12,r2,2000ad0 <response_R+0xdc>
 2000b90:	40803fcc 	andi	r2,r8,255
 2000b94:	1080201c 	xori	r2,r2,128
 2000b98:	10bfe004 	addi	r2,r2,-128
 2000b9c:	103fcc16 	blt	r2,zero,2000ad0 <response_R+0xdc>
 2000ba0:	6027883a 	mov	r19,r12
 2000ba4:	003fca06 	br	2000ad0 <response_R+0xdc>
 2000ba8:	28803fcc 	andi	r2,r5,255
 2000bac:	1085883a 	add	r2,r2,r2
 2000bb0:	40c03fcc 	andi	r3,r8,255
 2000bb4:	10800044 	addi	r2,r2,1
 2000bb8:	18bfce26 	beq	r3,r2,2000af4 <response_R+0x100>
 2000bbc:	00800084 	movi	r2,2
 2000bc0:	dcc00317 	ldw	r19,12(sp)
 2000bc4:	dc800217 	ldw	r18,8(sp)
 2000bc8:	dc400117 	ldw	r17,4(sp)
 2000bcc:	dc000017 	ldw	r16,0(sp)
 2000bd0:	dec00404 	addi	sp,sp,16
 2000bd4:	f800283a 	ret
 2000bd8:	00800444 	movi	r2,17
 2000bdc:	003f9b06 	br	2000a4c <response_R+0x58>

02000be0 <Ncc>:
 2000be0:	00805004 	movi	r2,320
 2000be4:	10000035 	stwio	zero,0(r2)
 2000be8:	00c00044 	movi	r3,1
 2000bec:	10c00035 	stwio	r3,0(r2)
 2000bf0:	10000035 	stwio	zero,0(r2)
 2000bf4:	10c00035 	stwio	r3,0(r2)
 2000bf8:	10000035 	stwio	zero,0(r2)
 2000bfc:	10c00035 	stwio	r3,0(r2)
 2000c00:	10000035 	stwio	zero,0(r2)
 2000c04:	10c00035 	stwio	r3,0(r2)
 2000c08:	10000035 	stwio	zero,0(r2)
 2000c0c:	10c00035 	stwio	r3,0(r2)
 2000c10:	10000035 	stwio	zero,0(r2)
 2000c14:	10c00035 	stwio	r3,0(r2)
 2000c18:	10000035 	stwio	zero,0(r2)
 2000c1c:	10c00035 	stwio	r3,0(r2)
 2000c20:	10000035 	stwio	zero,0(r2)
 2000c24:	10c00035 	stwio	r3,0(r2)
 2000c28:	f800283a 	ret

02000c2c <Ncr>:
 2000c2c:	00804d04 	movi	r2,308
 2000c30:	10000035 	stwio	zero,0(r2)
 2000c34:	00c05004 	movi	r3,320
 2000c38:	18000035 	stwio	zero,0(r3)
 2000c3c:	00800044 	movi	r2,1
 2000c40:	18800035 	stwio	r2,0(r3)
 2000c44:	18000035 	stwio	zero,0(r3)
 2000c48:	18800035 	stwio	r2,0(r3)
 2000c4c:	f800283a 	ret

02000c50 <info_bs>:
 2000c50:	deffff04 	addi	sp,sp,-4
 2000c54:	01008074 	movhi	r4,513
 2000c58:	21041b04 	addi	r4,r4,4204
 2000c5c:	dfc00015 	stw	ra,0(sp)
 2000c60:	20047540 	call	2004754 <printf>
 2000c64:	d0e76144 	addi	r3,gp,-25211
 2000c68:	19800043 	ldbu	r6,1(r3)
 2000c6c:	19c00083 	ldbu	r7,2(r3)
 2000c70:	d1676143 	ldbu	r5,-25211(gp)
 2000c74:	01008074 	movhi	r4,513
 2000c78:	21042504 	addi	r4,r4,4244
 2000c7c:	20047540 	call	2004754 <printf>
 2000c80:	01008074 	movhi	r4,513
 2000c84:	21042e04 	addi	r4,r4,4280
 2000c88:	d1677284 	addi	r5,gp,-25142
 2000c8c:	20047540 	call	2004754 <printf>
 2000c90:	d1676817 	ldw	r5,-25184(gp)
 2000c94:	01008074 	movhi	r4,513
 2000c98:	21043204 	addi	r4,r4,4296
 2000c9c:	20047540 	call	2004754 <printf>
 2000ca0:	d1675543 	ldbu	r5,-25259(gp)
 2000ca4:	01008074 	movhi	r4,513
 2000ca8:	21043704 	addi	r4,r4,4316
 2000cac:	20047540 	call	2004754 <printf>
 2000cb0:	d1678217 	ldw	r5,-25080(gp)
 2000cb4:	01008074 	movhi	r4,513
 2000cb8:	21043c04 	addi	r4,r4,4336
 2000cbc:	20047540 	call	2004754 <printf>
 2000cc0:	d1676303 	ldbu	r5,-25204(gp)
 2000cc4:	01008074 	movhi	r4,513
 2000cc8:	21044104 	addi	r4,r4,4356
 2000ccc:	20047540 	call	2004754 <printf>
 2000cd0:	d1675617 	ldw	r5,-25256(gp)
 2000cd4:	01008074 	movhi	r4,513
 2000cd8:	21044604 	addi	r4,r4,4376
 2000cdc:	20047540 	call	2004754 <printf>
 2000ce0:	d1677017 	ldw	r5,-25152(gp)
 2000ce4:	01008074 	movhi	r4,513
 2000ce8:	21044b04 	addi	r4,r4,4396
 2000cec:	20047540 	call	2004754 <printf>
 2000cf0:	d1678903 	ldbu	r5,-25052(gp)
 2000cf4:	01008074 	movhi	r4,513
 2000cf8:	21045004 	addi	r4,r4,4416
 2000cfc:	20047540 	call	2004754 <printf>
 2000d00:	d1676417 	ldw	r5,-25200(gp)
 2000d04:	01008074 	movhi	r4,513
 2000d08:	21045404 	addi	r4,r4,4432
 2000d0c:	20047540 	call	2004754 <printf>
 2000d10:	d1675c17 	ldw	r5,-25232(gp)
 2000d14:	01008074 	movhi	r4,513
 2000d18:	21045904 	addi	r4,r4,4452
 2000d1c:	20047540 	call	2004754 <printf>
 2000d20:	d1678417 	ldw	r5,-25072(gp)
 2000d24:	01008074 	movhi	r4,513
 2000d28:	21045e04 	addi	r4,r4,4472
 2000d2c:	20047540 	call	2004754 <printf>
 2000d30:	d1675d17 	ldw	r5,-25228(gp)
 2000d34:	01008074 	movhi	r4,513
 2000d38:	21046304 	addi	r4,r4,4492
 2000d3c:	20047540 	call	2004754 <printf>
 2000d40:	d1677b17 	ldw	r5,-25108(gp)
 2000d44:	01008074 	movhi	r4,513
 2000d48:	21046804 	addi	r4,r4,4512
 2000d4c:	20047540 	call	2004754 <printf>
 2000d50:	d1678117 	ldw	r5,-25084(gp)
 2000d54:	01008074 	movhi	r4,513
 2000d58:	21046d04 	addi	r4,r4,4532
 2000d5c:	280d883a 	mov	r6,r5
 2000d60:	20047540 	call	2004754 <printf>
 2000d64:	d1676a17 	ldw	r5,-25176(gp)
 2000d68:	01008074 	movhi	r4,513
 2000d6c:	21047504 	addi	r4,r4,4564
 2000d70:	280d883a 	mov	r6,r5
 2000d74:	20047540 	call	2004754 <printf>
 2000d78:	d1676217 	ldw	r5,-25208(gp)
 2000d7c:	01008074 	movhi	r4,513
 2000d80:	21047b04 	addi	r4,r4,4588
 2000d84:	280d883a 	mov	r6,r5
 2000d88:	20047540 	call	2004754 <printf>
 2000d8c:	d1677d17 	ldw	r5,-25100(gp)
 2000d90:	01008074 	movhi	r4,513
 2000d94:	21048304 	addi	r4,r4,4620
 2000d98:	280d883a 	mov	r6,r5
 2000d9c:	20047540 	call	2004754 <printf>
 2000da0:	d1677c17 	ldw	r5,-25104(gp)
 2000da4:	01008074 	movhi	r4,513
 2000da8:	21048904 	addi	r4,r4,4644
 2000dac:	280d883a 	mov	r6,r5
 2000db0:	20047540 	call	2004754 <printf>
 2000db4:	d1677e17 	ldw	r5,-25096(gp)
 2000db8:	01008074 	movhi	r4,513
 2000dbc:	21048f04 	addi	r4,r4,4668
 2000dc0:	280d883a 	mov	r6,r5
 2000dc4:	20047540 	call	2004754 <printf>
 2000dc8:	d1675a17 	ldw	r5,-25240(gp)
 2000dcc:	01008074 	movhi	r4,513
 2000dd0:	21049704 	addi	r4,r4,4700
 2000dd4:	280d883a 	mov	r6,r5
 2000dd8:	dfc00017 	ldw	ra,0(sp)
 2000ddc:	dec00104 	addi	sp,sp,4
 2000de0:	20047541 	jmpi	2004754 <printf>

02000de4 <SD_card_init>:
 2000de4:	defff904 	addi	sp,sp,-28
 2000de8:	01804d04 	movi	r6,308
 2000dec:	01000044 	movi	r4,1
 2000df0:	dfc00615 	stw	ra,24(sp)
 2000df4:	dd400515 	stw	r21,20(sp)
 2000df8:	dd000415 	stw	r20,16(sp)
 2000dfc:	dcc00315 	stw	r19,12(sp)
 2000e00:	dc800215 	stw	r18,8(sp)
 2000e04:	dc400115 	stw	r17,4(sp)
 2000e08:	dc000015 	stw	r16,0(sp)
 2000e0c:	31000035 	stwio	r4,0(r6)
 2000e10:	00804904 	movi	r2,292
 2000e14:	10000035 	stwio	zero,0(r2)
 2000e18:	01405004 	movi	r5,320
 2000e1c:	29000035 	stwio	r4,0(r5)
 2000e20:	00804c04 	movi	r2,304
 2000e24:	11000035 	stwio	r4,0(r2)
 2000e28:	00c04804 	movi	r3,288
 2000e2c:	18000035 	stwio	zero,0(r3)
 2000e30:	0007883a 	mov	r3,zero
 2000e34:	d0277245 	stb	zero,-25143(gp)
 2000e38:	01c00a04 	movi	r7,40
 2000e3c:	30000035 	stwio	zero,0(r6)
 2000e40:	28000035 	stwio	zero,0(r5)
 2000e44:	29000035 	stwio	r4,0(r5)
 2000e48:	28000035 	stwio	zero,0(r5)
 2000e4c:	29000035 	stwio	r4,0(r5)
 2000e50:	18c00044 	addi	r3,r3,1
 2000e54:	18803fcc 	andi	r2,r3,255
 2000e58:	11fff81e 	bne	r2,r7,2000e3c <SD_card_init+0x58>
 2000e5c:	d4e77104 	addi	r19,gp,-25148
 2000e60:	00801004 	movi	r2,64
 2000e64:	9809883a 	mov	r4,r19
 2000e68:	d0a77105 	stb	r2,-25148(gp)
 2000e6c:	98000045 	stb	zero,1(r19)
 2000e70:	98000085 	stb	zero,2(r19)
 2000e74:	980000c5 	stb	zero,3(r19)
 2000e78:	98000105 	stb	zero,4(r19)
 2000e7c:	04005004 	movi	r16,320
 2000e80:	20008f00 	call	20008f0 <send_cmd>
 2000e84:	04400044 	movi	r17,1
 2000e88:	9825883a 	mov	r18,r19
 2000e8c:	05004d04 	movi	r20,308
 2000e90:	80000035 	stwio	zero,0(r16)
 2000e94:	84400035 	stwio	r17,0(r16)
 2000e98:	80000035 	stwio	zero,0(r16)
 2000e9c:	84400035 	stwio	r17,0(r16)
 2000ea0:	80000035 	stwio	zero,0(r16)
 2000ea4:	84400035 	stwio	r17,0(r16)
 2000ea8:	80000035 	stwio	zero,0(r16)
 2000eac:	84400035 	stwio	r17,0(r16)
 2000eb0:	80000035 	stwio	zero,0(r16)
 2000eb4:	84400035 	stwio	r17,0(r16)
 2000eb8:	80000035 	stwio	zero,0(r16)
 2000ebc:	84400035 	stwio	r17,0(r16)
 2000ec0:	80000035 	stwio	zero,0(r16)
 2000ec4:	84400035 	stwio	r17,0(r16)
 2000ec8:	80000035 	stwio	zero,0(r16)
 2000ecc:	84400035 	stwio	r17,0(r16)
 2000ed0:	d1277104 	addi	r4,gp,-25148
 2000ed4:	00801dc4 	movi	r2,119
 2000ed8:	98000045 	stb	zero,1(r19)
 2000edc:	98000085 	stb	zero,2(r19)
 2000ee0:	980000c5 	stb	zero,3(r19)
 2000ee4:	98000105 	stb	zero,4(r19)
 2000ee8:	d0a77105 	stb	r2,-25148(gp)
 2000eec:	20008f00 	call	20008f0 <send_cmd>
 2000ef0:	a0000035 	stwio	zero,0(r20)
 2000ef4:	80000035 	stwio	zero,0(r16)
 2000ef8:	84400035 	stwio	r17,0(r16)
 2000efc:	80000035 	stwio	zero,0(r16)
 2000f00:	84400035 	stwio	r17,0(r16)
 2000f04:	01000044 	movi	r4,1
 2000f08:	20009f40 	call	20009f4 <response_R>
 2000f0c:	10803fcc 	andi	r2,r2,255
 2000f10:	88804436 	bltu	r17,r2,2001024 <SD_card_init+0x240>
 2000f14:	80000035 	stwio	zero,0(r16)
 2000f18:	84400035 	stwio	r17,0(r16)
 2000f1c:	80000035 	stwio	zero,0(r16)
 2000f20:	84400035 	stwio	r17,0(r16)
 2000f24:	80000035 	stwio	zero,0(r16)
 2000f28:	84400035 	stwio	r17,0(r16)
 2000f2c:	80000035 	stwio	zero,0(r16)
 2000f30:	84400035 	stwio	r17,0(r16)
 2000f34:	80000035 	stwio	zero,0(r16)
 2000f38:	84400035 	stwio	r17,0(r16)
 2000f3c:	80000035 	stwio	zero,0(r16)
 2000f40:	84400035 	stwio	r17,0(r16)
 2000f44:	80000035 	stwio	zero,0(r16)
 2000f48:	84400035 	stwio	r17,0(r16)
 2000f4c:	80000035 	stwio	zero,0(r16)
 2000f50:	84400035 	stwio	r17,0(r16)
 2000f54:	00801a44 	movi	r2,105
 2000f58:	00c003c4 	movi	r3,15
 2000f5c:	d0a77105 	stb	r2,-25148(gp)
 2000f60:	00bffc04 	movi	r2,-16
 2000f64:	d1277104 	addi	r4,gp,-25148
 2000f68:	90c00045 	stb	r3,1(r18)
 2000f6c:	90800085 	stb	r2,2(r18)
 2000f70:	900000c5 	stb	zero,3(r18)
 2000f74:	90000105 	stb	zero,4(r18)
 2000f78:	20008f00 	call	20008f0 <send_cmd>
 2000f7c:	a0000035 	stwio	zero,0(r20)
 2000f80:	80000035 	stwio	zero,0(r16)
 2000f84:	84400035 	stwio	r17,0(r16)
 2000f88:	80000035 	stwio	zero,0(r16)
 2000f8c:	84400035 	stwio	r17,0(r16)
 2000f90:	010000c4 	movi	r4,3
 2000f94:	20009f40 	call	20009f4 <response_R>
 2000f98:	10803fcc 	andi	r2,r2,255
 2000f9c:	147fbc26 	beq	r2,r17,2000e90 <SD_card_init+0xac>
 2000fa0:	80000035 	stwio	zero,0(r16)
 2000fa4:	84400035 	stwio	r17,0(r16)
 2000fa8:	80000035 	stwio	zero,0(r16)
 2000fac:	84400035 	stwio	r17,0(r16)
 2000fb0:	80000035 	stwio	zero,0(r16)
 2000fb4:	84400035 	stwio	r17,0(r16)
 2000fb8:	80000035 	stwio	zero,0(r16)
 2000fbc:	84400035 	stwio	r17,0(r16)
 2000fc0:	80000035 	stwio	zero,0(r16)
 2000fc4:	84400035 	stwio	r17,0(r16)
 2000fc8:	80000035 	stwio	zero,0(r16)
 2000fcc:	84400035 	stwio	r17,0(r16)
 2000fd0:	80000035 	stwio	zero,0(r16)
 2000fd4:	84400035 	stwio	r17,0(r16)
 2000fd8:	80000035 	stwio	zero,0(r16)
 2000fdc:	84400035 	stwio	r17,0(r16)
 2000fe0:	d1277104 	addi	r4,gp,-25148
 2000fe4:	00801084 	movi	r2,66
 2000fe8:	90000045 	stb	zero,1(r18)
 2000fec:	90000085 	stb	zero,2(r18)
 2000ff0:	900000c5 	stb	zero,3(r18)
 2000ff4:	90000105 	stb	zero,4(r18)
 2000ff8:	d0a77105 	stb	r2,-25148(gp)
 2000ffc:	20008f00 	call	20008f0 <send_cmd>
 2001000:	a0000035 	stwio	zero,0(r20)
 2001004:	80000035 	stwio	zero,0(r16)
 2001008:	84400035 	stwio	r17,0(r16)
 200100c:	80000035 	stwio	zero,0(r16)
 2001010:	84400035 	stwio	r17,0(r16)
 2001014:	01000084 	movi	r4,2
 2001018:	20009f40 	call	20009f4 <response_R>
 200101c:	10803fcc 	andi	r2,r2,255
 2001020:	88800a2e 	bgeu	r17,r2,200104c <SD_card_init+0x268>
 2001024:	00800044 	movi	r2,1
 2001028:	dfc00617 	ldw	ra,24(sp)
 200102c:	dd400517 	ldw	r21,20(sp)
 2001030:	dd000417 	ldw	r20,16(sp)
 2001034:	dcc00317 	ldw	r19,12(sp)
 2001038:	dc800217 	ldw	r18,8(sp)
 200103c:	dc400117 	ldw	r17,4(sp)
 2001040:	dc000017 	ldw	r16,0(sp)
 2001044:	dec00704 	addi	sp,sp,28
 2001048:	f800283a 	ret
 200104c:	80000035 	stwio	zero,0(r16)
 2001050:	84400035 	stwio	r17,0(r16)
 2001054:	80000035 	stwio	zero,0(r16)
 2001058:	84400035 	stwio	r17,0(r16)
 200105c:	80000035 	stwio	zero,0(r16)
 2001060:	84400035 	stwio	r17,0(r16)
 2001064:	80000035 	stwio	zero,0(r16)
 2001068:	84400035 	stwio	r17,0(r16)
 200106c:	80000035 	stwio	zero,0(r16)
 2001070:	84400035 	stwio	r17,0(r16)
 2001074:	80000035 	stwio	zero,0(r16)
 2001078:	84400035 	stwio	r17,0(r16)
 200107c:	80000035 	stwio	zero,0(r16)
 2001080:	84400035 	stwio	r17,0(r16)
 2001084:	80000035 	stwio	zero,0(r16)
 2001088:	84400035 	stwio	r17,0(r16)
 200108c:	d1277104 	addi	r4,gp,-25148
 2001090:	008010c4 	movi	r2,67
 2001094:	90000045 	stb	zero,1(r18)
 2001098:	90000085 	stb	zero,2(r18)
 200109c:	900000c5 	stb	zero,3(r18)
 20010a0:	90000105 	stb	zero,4(r18)
 20010a4:	d0a77105 	stb	r2,-25148(gp)
 20010a8:	20008f00 	call	20008f0 <send_cmd>
 20010ac:	a0000035 	stwio	zero,0(r20)
 20010b0:	80000035 	stwio	zero,0(r16)
 20010b4:	84400035 	stwio	r17,0(r16)
 20010b8:	80000035 	stwio	zero,0(r16)
 20010bc:	84400035 	stwio	r17,0(r16)
 20010c0:	01000184 	movi	r4,6
 20010c4:	20009f40 	call	20009f4 <response_R>
 20010c8:	10803fcc 	andi	r2,r2,255
 20010cc:	88bfd536 	bltu	r17,r2,2001024 <SD_card_init+0x240>
 20010d0:	008080b4 	movhi	r2,514
 20010d4:	10a88604 	addi	r2,r2,-24040
 20010d8:	10c00083 	ldbu	r3,2(r2)
 20010dc:	11400043 	ldbu	r5,1(r2)
 20010e0:	d5678304 	addi	r21,gp,-25076
 20010e4:	a8c00045 	stb	r3,1(r21)
 20010e8:	d1678305 	stb	r5,-25076(gp)
 20010ec:	80000035 	stwio	zero,0(r16)
 20010f0:	84400035 	stwio	r17,0(r16)
 20010f4:	80000035 	stwio	zero,0(r16)
 20010f8:	84400035 	stwio	r17,0(r16)
 20010fc:	80000035 	stwio	zero,0(r16)
 2001100:	84400035 	stwio	r17,0(r16)
 2001104:	80000035 	stwio	zero,0(r16)
 2001108:	84400035 	stwio	r17,0(r16)
 200110c:	80000035 	stwio	zero,0(r16)
 2001110:	84400035 	stwio	r17,0(r16)
 2001114:	80000035 	stwio	zero,0(r16)
 2001118:	84400035 	stwio	r17,0(r16)
 200111c:	80000035 	stwio	zero,0(r16)
 2001120:	84400035 	stwio	r17,0(r16)
 2001124:	80000035 	stwio	zero,0(r16)
 2001128:	84400035 	stwio	r17,0(r16)
 200112c:	d1277104 	addi	r4,gp,-25148
 2001130:	90c00085 	stb	r3,2(r18)
 2001134:	00801244 	movi	r2,73
 2001138:	91400045 	stb	r5,1(r18)
 200113c:	900000c5 	stb	zero,3(r18)
 2001140:	90000105 	stb	zero,4(r18)
 2001144:	d0a77105 	stb	r2,-25148(gp)
 2001148:	20008f00 	call	20008f0 <send_cmd>
 200114c:	a0000035 	stwio	zero,0(r20)
 2001150:	80000035 	stwio	zero,0(r16)
 2001154:	84400035 	stwio	r17,0(r16)
 2001158:	80000035 	stwio	zero,0(r16)
 200115c:	84400035 	stwio	r17,0(r16)
 2001160:	01000084 	movi	r4,2
 2001164:	20009f40 	call	20009f4 <response_R>
 2001168:	10803fcc 	andi	r2,r2,255
 200116c:	88bfad36 	bltu	r17,r2,2001024 <SD_card_init+0x240>
 2001170:	0005883a 	mov	r2,zero
 2001174:	04005004 	movi	r16,320
 2001178:	04400044 	movi	r17,1
 200117c:	00c00204 	movi	r3,8
 2001180:	80000035 	stwio	zero,0(r16)
 2001184:	84400035 	stwio	r17,0(r16)
 2001188:	10800044 	addi	r2,r2,1
 200118c:	10fffc1e 	bne	r2,r3,2001180 <SD_card_init+0x39c>
 2001190:	a9400043 	ldbu	r5,1(r21)
 2001194:	d0e78303 	ldbu	r3,-25076(gp)
 2001198:	d1277104 	addi	r4,gp,-25148
 200119c:	008011c4 	movi	r2,71
 20011a0:	98c00045 	stb	r3,1(r19)
 20011a4:	99400085 	stb	r5,2(r19)
 20011a8:	980000c5 	stb	zero,3(r19)
 20011ac:	98000105 	stb	zero,4(r19)
 20011b0:	d0a77105 	stb	r2,-25148(gp)
 20011b4:	20008f00 	call	20008f0 <send_cmd>
 20011b8:	00c04d04 	movi	r3,308
 20011bc:	18000035 	stwio	zero,0(r3)
 20011c0:	80000035 	stwio	zero,0(r16)
 20011c4:	84400035 	stwio	r17,0(r16)
 20011c8:	80000035 	stwio	zero,0(r16)
 20011cc:	84400035 	stwio	r17,0(r16)
 20011d0:	01000044 	movi	r4,1
 20011d4:	20009f40 	call	20009f4 <response_R>
 20011d8:	10803fcc 	andi	r2,r2,255
 20011dc:	88bf9136 	bltu	r17,r2,2001024 <SD_card_init+0x240>
 20011e0:	0005883a 	mov	r2,zero
 20011e4:	04005004 	movi	r16,320
 20011e8:	04400044 	movi	r17,1
 20011ec:	00c00204 	movi	r3,8
 20011f0:	80000035 	stwio	zero,0(r16)
 20011f4:	84400035 	stwio	r17,0(r16)
 20011f8:	10800044 	addi	r2,r2,1
 20011fc:	10fffc1e 	bne	r2,r3,20011f0 <SD_card_init+0x40c>
 2001200:	00c00084 	movi	r3,2
 2001204:	d1277104 	addi	r4,gp,-25148
 2001208:	00801404 	movi	r2,80
 200120c:	98c000c5 	stb	r3,3(r19)
 2001210:	98000105 	stb	zero,4(r19)
 2001214:	98000045 	stb	zero,1(r19)
 2001218:	98000085 	stb	zero,2(r19)
 200121c:	d0a77105 	stb	r2,-25148(gp)
 2001220:	20008f00 	call	20008f0 <send_cmd>
 2001224:	00c04d04 	movi	r3,308
 2001228:	18000035 	stwio	zero,0(r3)
 200122c:	80000035 	stwio	zero,0(r16)
 2001230:	84400035 	stwio	r17,0(r16)
 2001234:	80000035 	stwio	zero,0(r16)
 2001238:	84400035 	stwio	r17,0(r16)
 200123c:	01000044 	movi	r4,1
 2001240:	20009f40 	call	20009f4 <response_R>
 2001244:	10803fcc 	andi	r2,r2,255
 2001248:	88bf7636 	bltu	r17,r2,2001024 <SD_card_init+0x240>
 200124c:	0005883a 	mov	r2,zero
 2001250:	d4677245 	stb	r17,-25143(gp)
 2001254:	003f7406 	br	2001028 <SD_card_init+0x244>

02001258 <SD_read_lba>:
 2001258:	defff704 	addi	sp,sp,-36
 200125c:	ddc00715 	stw	r23,28(sp)
 2001260:	dd400515 	stw	r21,20(sp)
 2001264:	dcc00315 	stw	r19,12(sp)
 2001268:	dfc00815 	stw	ra,32(sp)
 200126c:	dd800615 	stw	r22,24(sp)
 2001270:	dd000415 	stw	r20,16(sp)
 2001274:	dc800215 	stw	r18,8(sp)
 2001278:	dc400115 	stw	r17,4(sp)
 200127c:	dc000015 	stw	r16,0(sp)
 2001280:	302f883a 	mov	r23,r6
 2001284:	202b883a 	mov	r21,r4
 2001288:	2827883a 	mov	r19,r5
 200128c:	30007b26 	beq	r6,zero,200147c <SD_read_lba+0x224>
 2001290:	0025883a 	mov	r18,zero
 2001294:	0029883a 	mov	r20,zero
 2001298:	d5a77104 	addi	r22,gp,-25148
 200129c:	04005004 	movi	r16,320
 20012a0:	80000035 	stwio	zero,0(r16)
 20012a4:	04400044 	movi	r17,1
 20012a8:	84400035 	stwio	r17,0(r16)
 20012ac:	80000035 	stwio	zero,0(r16)
 20012b0:	84400035 	stwio	r17,0(r16)
 20012b4:	80000035 	stwio	zero,0(r16)
 20012b8:	84400035 	stwio	r17,0(r16)
 20012bc:	80000035 	stwio	zero,0(r16)
 20012c0:	84400035 	stwio	r17,0(r16)
 20012c4:	80000035 	stwio	zero,0(r16)
 20012c8:	84400035 	stwio	r17,0(r16)
 20012cc:	80000035 	stwio	zero,0(r16)
 20012d0:	84400035 	stwio	r17,0(r16)
 20012d4:	80000035 	stwio	zero,0(r16)
 20012d8:	84400035 	stwio	r17,0(r16)
 20012dc:	80000035 	stwio	zero,0(r16)
 20012e0:	84400035 	stwio	r17,0(r16)
 20012e4:	9806d3fa 	srli	r3,r19,15
 20012e8:	980ad1fa 	srli	r5,r19,7
 20012ec:	9ccd883a 	add	r6,r19,r19
 20012f0:	d1277104 	addi	r4,gp,-25148
 20012f4:	00801444 	movi	r2,81
 20012f8:	b0c00045 	stb	r3,1(r22)
 20012fc:	b1400085 	stb	r5,2(r22)
 2001300:	b18000c5 	stb	r6,3(r22)
 2001304:	b0000105 	stb	zero,4(r22)
 2001308:	d0a77105 	stb	r2,-25148(gp)
 200130c:	20008f00 	call	20008f0 <send_cmd>
 2001310:	00c04d04 	movi	r3,308
 2001314:	18000035 	stwio	zero,0(r3)
 2001318:	80000035 	stwio	zero,0(r16)
 200131c:	84400035 	stwio	r17,0(r16)
 2001320:	80000035 	stwio	zero,0(r16)
 2001324:	84400035 	stwio	r17,0(r16)
 2001328:	01005004 	movi	r4,320
 200132c:	20000035 	stwio	zero,0(r4)
 2001330:	00800044 	movi	r2,1
 2001334:	20800035 	stwio	r2,0(r4)
 2001338:	00c04804 	movi	r3,288
 200133c:	18800037 	ldwio	r2,0(r3)
 2001340:	103ff91e 	bne	r2,zero,2001328 <SD_read_lba+0xd0>
 2001344:	a813883a 	mov	r9,r21
 2001348:	0011883a 	mov	r8,zero
 200134c:	01005004 	movi	r4,320
 2001350:	20000035 	stwio	zero,0(r4)
 2001354:	01c00044 	movi	r7,1
 2001358:	21c00035 	stwio	r7,0(r4)
 200135c:	948b883a 	add	r5,r18,r18
 2001360:	2807883a 	mov	r3,r5
 2001364:	01804804 	movi	r6,288
 2001368:	30800037 	ldwio	r2,0(r6)
 200136c:	10000126 	beq	r2,zero,2001374 <SD_read_lba+0x11c>
 2001370:	29c6b03a 	or	r3,r5,r7
 2001374:	20000035 	stwio	zero,0(r4)
 2001378:	21c00035 	stwio	r7,0(r4)
 200137c:	18cb883a 	add	r5,r3,r3
 2001380:	2807883a 	mov	r3,r5
 2001384:	30800037 	ldwio	r2,0(r6)
 2001388:	10000126 	beq	r2,zero,2001390 <SD_read_lba+0x138>
 200138c:	28c00054 	ori	r3,r5,1
 2001390:	20000035 	stwio	zero,0(r4)
 2001394:	21c00035 	stwio	r7,0(r4)
 2001398:	18cb883a 	add	r5,r3,r3
 200139c:	2807883a 	mov	r3,r5
 20013a0:	30800037 	ldwio	r2,0(r6)
 20013a4:	10000126 	beq	r2,zero,20013ac <SD_read_lba+0x154>
 20013a8:	28c00054 	ori	r3,r5,1
 20013ac:	20000035 	stwio	zero,0(r4)
 20013b0:	21c00035 	stwio	r7,0(r4)
 20013b4:	18cb883a 	add	r5,r3,r3
 20013b8:	2807883a 	mov	r3,r5
 20013bc:	30800037 	ldwio	r2,0(r6)
 20013c0:	10000126 	beq	r2,zero,20013c8 <SD_read_lba+0x170>
 20013c4:	28c00054 	ori	r3,r5,1
 20013c8:	20000035 	stwio	zero,0(r4)
 20013cc:	21c00035 	stwio	r7,0(r4)
 20013d0:	18cb883a 	add	r5,r3,r3
 20013d4:	2807883a 	mov	r3,r5
 20013d8:	30800037 	ldwio	r2,0(r6)
 20013dc:	10000126 	beq	r2,zero,20013e4 <SD_read_lba+0x18c>
 20013e0:	28c00054 	ori	r3,r5,1
 20013e4:	20000035 	stwio	zero,0(r4)
 20013e8:	21c00035 	stwio	r7,0(r4)
 20013ec:	18cb883a 	add	r5,r3,r3
 20013f0:	2807883a 	mov	r3,r5
 20013f4:	30800037 	ldwio	r2,0(r6)
 20013f8:	10000126 	beq	r2,zero,2001400 <SD_read_lba+0x1a8>
 20013fc:	28c00054 	ori	r3,r5,1
 2001400:	20000035 	stwio	zero,0(r4)
 2001404:	21c00035 	stwio	r7,0(r4)
 2001408:	18cb883a 	add	r5,r3,r3
 200140c:	2807883a 	mov	r3,r5
 2001410:	30800037 	ldwio	r2,0(r6)
 2001414:	10000126 	beq	r2,zero,200141c <SD_read_lba+0x1c4>
 2001418:	28c00054 	ori	r3,r5,1
 200141c:	20000035 	stwio	zero,0(r4)
 2001420:	21c00035 	stwio	r7,0(r4)
 2001424:	18e5883a 	add	r18,r3,r3
 2001428:	30800037 	ldwio	r2,0(r6)
 200142c:	10000126 	beq	r2,zero,2001434 <SD_read_lba+0x1dc>
 2001430:	94800054 	ori	r18,r18,1
 2001434:	42000044 	addi	r8,r8,1
 2001438:	00808004 	movi	r2,512
 200143c:	4c800005 	stb	r18,0(r9)
 2001440:	4a400044 	addi	r9,r9,1
 2001444:	40bfc11e 	bne	r8,r2,200134c <SD_read_lba+0xf4>
 2001448:	aa2b883a 	add	r21,r21,r8
 200144c:	0005883a 	mov	r2,zero
 2001450:	00c05004 	movi	r3,320
 2001454:	01400044 	movi	r5,1
 2001458:	01000404 	movi	r4,16
 200145c:	18000035 	stwio	zero,0(r3)
 2001460:	19400035 	stwio	r5,0(r3)
 2001464:	10800044 	addi	r2,r2,1
 2001468:	113ffc1e 	bne	r2,r4,200145c <SD_read_lba+0x204>
 200146c:	a5000044 	addi	r20,r20,1
 2001470:	bd000226 	beq	r23,r20,200147c <SD_read_lba+0x224>
 2001474:	9cc00044 	addi	r19,r19,1
 2001478:	003f8806 	br	200129c <SD_read_lba+0x44>
 200147c:	00800044 	movi	r2,1
 2001480:	d0a77245 	stb	r2,-25143(gp)
 2001484:	0005883a 	mov	r2,zero
 2001488:	dfc00817 	ldw	ra,32(sp)
 200148c:	ddc00717 	ldw	r23,28(sp)
 2001490:	dd800617 	ldw	r22,24(sp)
 2001494:	dd400517 	ldw	r21,20(sp)
 2001498:	dd000417 	ldw	r20,16(sp)
 200149c:	dcc00317 	ldw	r19,12(sp)
 20014a0:	dc800217 	ldw	r18,8(sp)
 20014a4:	dc400117 	ldw	r17,4(sp)
 20014a8:	dc000017 	ldw	r16,0(sp)
 20014ac:	dec00904 	addi	sp,sp,36
 20014b0:	f800283a 	ret

020014b4 <get_rel_sector>:
 20014b4:	defff604 	addi	sp,sp,-40
 20014b8:	dd000415 	stw	r20,16(sp)
 20014bc:	dc800215 	stw	r18,8(sp)
 20014c0:	2829883a 	mov	r20,r5
 20014c4:	2025883a 	mov	r18,r4
 20014c8:	d1676817 	ldw	r5,-25184(gp)
 20014cc:	21000417 	ldw	r4,16(r4)
 20014d0:	dfc00915 	stw	ra,36(sp)
 20014d4:	dcc00315 	stw	r19,12(sp)
 20014d8:	dc400115 	stw	r17,4(sp)
 20014dc:	3027883a 	mov	r19,r6
 20014e0:	dc000015 	stw	r16,0(sp)
 20014e4:	df000815 	stw	fp,32(sp)
 20014e8:	3821883a 	mov	r16,r7
 20014ec:	ddc00715 	stw	r23,28(sp)
 20014f0:	dd800615 	stw	r22,24(sp)
 20014f4:	dd400515 	stw	r21,20(sp)
 20014f8:	20040e00 	call	20040e0 <__udivsi3>
 20014fc:	1009883a 	mov	r4,r2
 2001500:	2003e100 	call	2003e10 <__floatunsidf>
 2001504:	180b883a 	mov	r5,r3
 2001508:	1009883a 	mov	r4,r2
 200150c:	200327c0 	call	200327c <ceil>
 2001510:	180b883a 	mov	r5,r3
 2001514:	1009883a 	mov	r4,r2
 2001518:	2003d380 	call	2003d38 <__fixdfsi>
 200151c:	1023883a 	mov	r17,r2
 2001520:	80800d16 	blt	r16,r2,2001558 <get_rel_sector+0xa4>
 2001524:	00bfffc4 	movi	r2,-1
 2001528:	dfc00917 	ldw	ra,36(sp)
 200152c:	df000817 	ldw	fp,32(sp)
 2001530:	ddc00717 	ldw	r23,28(sp)
 2001534:	dd800617 	ldw	r22,24(sp)
 2001538:	dd400517 	ldw	r21,20(sp)
 200153c:	dd000417 	ldw	r20,16(sp)
 2001540:	dcc00317 	ldw	r19,12(sp)
 2001544:	dc800217 	ldw	r18,8(sp)
 2001548:	dc400117 	ldw	r17,4(sp)
 200154c:	dc000017 	ldw	r16,0(sp)
 2001550:	dec00a04 	addi	sp,sp,40
 2001554:	f800283a 	ret
 2001558:	803ff216 	blt	r16,zero,2001524 <get_rel_sector+0x70>
 200155c:	d5675543 	ldbu	r21,-25259(gp)
 2001560:	d0a76217 	ldw	r2,-25208(gp)
 2001564:	d0e78d17 	ldw	r3,-25036(gp)
 2001568:	856cb03a 	or	r22,r16,r21
 200156c:	010003c4 	movi	r4,15
 2001570:	10f9883a 	add	fp,r2,r3
 2001574:	25802836 	bltu	r4,r22,2001618 <get_rel_sector+0x164>
 2001578:	8004913a 	slli	r2,r16,4
 200157c:	00c08074 	movhi	r3,513
 2001580:	18c64a04 	addi	r3,r3,6440
 2001584:	1544b03a 	or	r2,r2,r21
 2001588:	10c5883a 	add	r2,r2,r3
 200158c:	11000003 	ldbu	r4,0(r2)
 2001590:	a80b883a 	mov	r5,r21
 2001594:	20040f00 	call	20040f0 <__mulsi3>
 2001598:	80afc83a 	sub	r23,r16,r2
 200159c:	008003c4 	movi	r2,15
 20015a0:	15802236 	bltu	r2,r22,200162c <get_rel_sector+0x178>
 20015a4:	8004913a 	slli	r2,r16,4
 20015a8:	00c08074 	movhi	r3,513
 20015ac:	18c64a04 	addi	r3,r3,6440
 20015b0:	1544b03a 	or	r2,r2,r21
 20015b4:	10c5883a 	add	r2,r2,r3
 20015b8:	11000003 	ldbu	r4,0(r2)
 20015bc:	2003c400 	call	2003c40 <__floatsidf>
 20015c0:	180b883a 	mov	r5,r3
 20015c4:	1009883a 	mov	r4,r2
 20015c8:	20034900 	call	2003490 <floor>
 20015cc:	180b883a 	mov	r5,r3
 20015d0:	1009883a 	mov	r4,r2
 20015d4:	2003d380 	call	2003d38 <__fixdfsi>
 20015d8:	1085883a 	add	r2,r2,r2
 20015dc:	1085883a 	add	r2,r2,r2
 20015e0:	14c5883a 	add	r2,r2,r19
 20015e4:	11000017 	ldw	r4,0(r2)
 20015e8:	a80b883a 	mov	r5,r21
 20015ec:	213fff84 	addi	r4,r4,-2
 20015f0:	20040f00 	call	20040f0 <__mulsi3>
 20015f4:	b885883a 	add	r2,r23,r2
 20015f8:	e08b883a 	add	r5,fp,r2
 20015fc:	a009883a 	mov	r4,r20
 2001600:	01800044 	movi	r6,1
 2001604:	20012580 	call	2001258 <SD_read_lba>
 2001608:	88ffffc4 	addi	r3,r17,-1
 200160c:	80c00c26 	beq	r16,r3,2001640 <get_rel_sector+0x18c>
 2001610:	0005883a 	mov	r2,zero
 2001614:	003fc406 	br	2001528 <get_rel_sector+0x74>
 2001618:	8009883a 	mov	r4,r16
 200161c:	a80b883a 	mov	r5,r21
 2001620:	20040200 	call	2004020 <__divsi3>
 2001624:	1009883a 	mov	r4,r2
 2001628:	003fd906 	br	2001590 <get_rel_sector+0xdc>
 200162c:	8009883a 	mov	r4,r16
 2001630:	a80b883a 	mov	r5,r21
 2001634:	20040200 	call	2004020 <__divsi3>
 2001638:	1009883a 	mov	r4,r2
 200163c:	003fdf06 	br	20015bc <get_rel_sector+0x108>
 2001640:	d1676817 	ldw	r5,-25184(gp)
 2001644:	8809883a 	mov	r4,r17
 2001648:	20040f00 	call	20040f0 <__mulsi3>
 200164c:	90c00417 	ldw	r3,16(r18)
 2001650:	1885c83a 	sub	r2,r3,r2
 2001654:	003fb406 	br	2001528 <get_rel_sector+0x74>

02001658 <search_for_filetype>:
 2001658:	deff7004 	addi	sp,sp,-576
 200165c:	dcc08915 	stw	r19,548(sp)
 2001660:	dcc00404 	addi	r19,sp,16
 2001664:	ddc08d15 	stw	r23,564(sp)
 2001668:	dc008615 	stw	r16,536(sp)
 200166c:	d9408415 	stw	r5,528(sp)
 2001670:	202f883a 	mov	r23,r4
 2001674:	3021883a 	mov	r16,r6
 2001678:	9809883a 	mov	r4,r19
 200167c:	000b883a 	mov	r5,zero
 2001680:	01808004 	movi	r6,512
 2001684:	dfc08f15 	stw	ra,572(sp)
 2001688:	df008e15 	stw	fp,568(sp)
 200168c:	dd808c15 	stw	r22,560(sp)
 2001690:	dd408b15 	stw	r21,556(sp)
 2001694:	dd008a15 	stw	r20,552(sp)
 2001698:	dc808815 	stw	r18,544(sp)
 200169c:	dc408715 	stw	r17,540(sp)
 20016a0:	d9c08515 	stw	r7,532(sp)
 20016a4:	20046bc0 	call	20046bc <memset>
 20016a8:	d8808517 	ldw	r2,532(sp)
 20016ac:	1000b526 	beq	r2,zero,2001984 <search_for_filetype+0x32c>
 20016b0:	d0e78d17 	ldw	r3,-25036(gp)
 20016b4:	d0a75a17 	ldw	r2,-25240(gp)
 20016b8:	9809883a 	mov	r4,r19
 20016bc:	01800044 	movi	r6,1
 20016c0:	18ab883a 	add	r21,r3,r2
 20016c4:	a80b883a 	mov	r5,r21
 20016c8:	20012580 	call	2001258 <SD_read_lba>
 20016cc:	0025883a 	mov	r18,zero
 20016d0:	0029883a 	mov	r20,zero
 20016d4:	91403fcc 	andi	r5,r18,255
 20016d8:	2822917a 	slli	r17,r5,5
 20016dc:	9c45883a 	add	r2,r19,r17
 20016e0:	11800003 	ldbu	r6,0(r2)
 20016e4:	30005926 	beq	r6,zero,200184c <search_for_filetype+0x1f4>
 20016e8:	894002c4 	addi	r5,r17,11
 20016ec:	9945883a 	add	r2,r19,r5
 20016f0:	11000003 	ldbu	r4,0(r2)
 20016f4:	20c003cc 	andi	r3,r4,15
 20016f8:	20800fcc 	andi	r2,r4,63
 20016fc:	18806a26 	beq	r3,r2,20018a8 <search_for_filetype+0x250>
 2001700:	9945883a 	add	r2,r19,r5
 2001704:	14000003 	ldbu	r16,0(r2)
 2001708:	81003fcc 	andi	r4,r16,255
 200170c:	2080020c 	andi	r2,r4,8
 2001710:	10003e1e 	bne	r2,zero,200180c <search_for_filetype+0x1b4>
 2001714:	9c45883a 	add	r2,r19,r17
 2001718:	13c00003 	ldbu	r15,0(r2)
 200171c:	00803944 	movi	r2,229
 2001720:	78c03fcc 	andi	r3,r15,255
 2001724:	18803926 	beq	r3,r2,200180c <search_for_filetype+0x1b4>
 2001728:	2080040c 	andi	r2,r4,16
 200172c:	1000771e 	bne	r2,zero,200190c <search_for_filetype+0x2b4>
 2001730:	dac00484 	addi	r11,sp,18
 2001734:	dd800444 	addi	r22,sp,17
 2001738:	df0004c4 	addi	fp,sp,19
 200173c:	da000504 	addi	r8,sp,20
 2001740:	d9c00544 	addi	r7,sp,21
 2001744:	d9800584 	addi	r6,sp,22
 2001748:	d94005c4 	addi	r5,sp,23
 200174c:	d9000604 	addi	r4,sp,24
 2001750:	d8c00644 	addi	r3,sp,25
 2001754:	d8800684 	addi	r2,sp,26
 2001758:	5c55883a 	add	r10,r11,r17
 200175c:	4451883a 	add	r8,r8,r17
 2001760:	3c4f883a 	add	r7,r7,r17
 2001764:	2c4b883a 	add	r5,r5,r17
 2001768:	2449883a 	add	r4,r4,r17
 200176c:	1c47883a 	add	r3,r3,r17
 2001770:	1445883a 	add	r2,r2,r17
 2001774:	b453883a 	add	r9,r22,r17
 2001778:	344d883a 	add	r6,r6,r17
 200177c:	e457883a 	add	r11,fp,r17
 2001780:	23000003 	ldbu	r12,0(r4)
 2001784:	1b400003 	ldbu	r13,0(r3)
 2001788:	13800003 	ldbu	r14,0(r2)
 200178c:	48c00003 	ldbu	r3,0(r9)
 2001790:	50800003 	ldbu	r2,0(r10)
 2001794:	59000003 	ldbu	r4,0(r11)
 2001798:	42400003 	ldbu	r9,0(r8)
 200179c:	3a800003 	ldbu	r10,0(r7)
 20017a0:	32000003 	ldbu	r8,0(r6)
 20017a4:	29c00003 	ldbu	r7,0(r5)
 20017a8:	d90001c5 	stb	r4,7(sp)
 20017ac:	dbc00105 	stb	r15,4(sp)
 20017b0:	d8c00145 	stb	r3,5(sp)
 20017b4:	d8800185 	stb	r2,6(sp)
 20017b8:	da400205 	stb	r9,8(sp)
 20017bc:	da800245 	stb	r10,9(sp)
 20017c0:	da000285 	stb	r8,10(sp)
 20017c4:	d9c002c5 	stb	r7,11(sp)
 20017c8:	db000005 	stb	r12,0(sp)
 20017cc:	db400045 	stb	r13,1(sp)
 20017d0:	db800085 	stb	r14,2(sp)
 20017d4:	db000305 	stb	r12,12(sp)
 20017d8:	db400345 	stb	r13,13(sp)
 20017dc:	db800385 	stb	r14,14(sp)
 20017e0:	d80003c5 	stb	zero,15(sp)
 20017e4:	d80000c5 	stb	zero,3(sp)
 20017e8:	b809883a 	mov	r4,r23
 20017ec:	d80b883a 	mov	r5,sp
 20017f0:	20048800 	call	2004880 <strcmp>
 20017f4:	1000051e 	bne	r2,zero,200180c <search_for_filetype+0x1b4>
 20017f8:	d0e74f17 	ldw	r3,-25284(gp)
 20017fc:	d0a75017 	ldw	r2,-25280(gp)
 2001800:	18806f26 	beq	r3,r2,20019c0 <search_for_filetype+0x368>
 2001804:	18800044 	addi	r2,r3,1
 2001808:	d0a74f15 	stw	r2,-25284(gp)
 200180c:	94800044 	addi	r18,r18,1
 2001810:	91403fcc 	andi	r5,r18,255
 2001814:	2806917a 	slli	r3,r5,5
 2001818:	d0a76817 	ldw	r2,-25184(gp)
 200181c:	18bfae36 	bltu	r3,r2,20016d8 <search_for_filetype+0x80>
 2001820:	a5000044 	addi	r20,r20,1
 2001824:	a54b883a 	add	r5,r20,r21
 2001828:	01800044 	movi	r6,1
 200182c:	9809883a 	mov	r4,r19
 2001830:	20012580 	call	2001258 <SD_read_lba>
 2001834:	000b883a 	mov	r5,zero
 2001838:	2822917a 	slli	r17,r5,5
 200183c:	0025883a 	mov	r18,zero
 2001840:	9c45883a 	add	r2,r19,r17
 2001844:	11800003 	ldbu	r6,0(r2)
 2001848:	303fa71e 	bne	r6,zero,20016e8 <search_for_filetype+0x90>
 200184c:	d8808517 	ldw	r2,532(sp)
 2001850:	10005826 	beq	r2,zero,20019b4 <search_for_filetype+0x35c>
 2001854:	d0a75017 	ldw	r2,-25280(gp)
 2001858:	10005126 	beq	r2,zero,20019a0 <search_for_filetype+0x348>
 200185c:	d9408417 	ldw	r5,528(sp)
 2001860:	b809883a 	mov	r4,r23
 2001864:	000d883a 	mov	r6,zero
 2001868:	01c00044 	movi	r7,1
 200186c:	d0275015 	stw	zero,-25280(gp)
 2001870:	d0274f15 	stw	zero,-25284(gp)
 2001874:	20016580 	call	2001658 <search_for_filetype>
 2001878:	dfc08f17 	ldw	ra,572(sp)
 200187c:	df008e17 	ldw	fp,568(sp)
 2001880:	ddc08d17 	ldw	r23,564(sp)
 2001884:	dd808c17 	ldw	r22,560(sp)
 2001888:	dd408b17 	ldw	r21,556(sp)
 200188c:	dd008a17 	ldw	r20,552(sp)
 2001890:	dcc08917 	ldw	r19,548(sp)
 2001894:	dc808817 	ldw	r18,544(sp)
 2001898:	dc408717 	ldw	r17,540(sp)
 200189c:	dc008617 	ldw	r16,536(sp)
 20018a0:	dec09004 	addi	sp,sp,576
 20018a4:	f800283a 	ret
 20018a8:	00800204 	movi	r2,8
 20018ac:	20bfd726 	beq	r4,r2,200180c <search_for_filetype+0x1b4>
 20018b0:	00803944 	movi	r2,229
 20018b4:	30bf9226 	beq	r6,r2,2001700 <search_for_filetype+0xa8>
 20018b8:	34002fcc 	andi	r16,r6,191
 20018bc:	803f9026 	beq	r16,zero,2001700 <search_for_filetype+0xa8>
 20018c0:	94800044 	addi	r18,r18,1
 20018c4:	90c03fcc 	andi	r3,r18,255
 20018c8:	1806917a 	slli	r3,r3,5
 20018cc:	d0a76817 	ldw	r2,-25184(gp)
 20018d0:	9809883a 	mov	r4,r19
 20018d4:	01800044 	movi	r6,1
 20018d8:	843fffc4 	addi	r16,r16,-1
 20018dc:	1880052e 	bgeu	r3,r2,20018f4 <search_for_filetype+0x29c>
 20018e0:	803ff71e 	bne	r16,zero,20018c0 <search_for_filetype+0x268>
 20018e4:	90803fcc 	andi	r2,r18,255
 20018e8:	1022917a 	slli	r17,r2,5
 20018ec:	894002c4 	addi	r5,r17,11
 20018f0:	003f8306 	br	2001700 <search_for_filetype+0xa8>
 20018f4:	a1a9883a 	add	r20,r20,r6
 20018f8:	ad0b883a 	add	r5,r21,r20
 20018fc:	0025883a 	mov	r18,zero
 2001900:	20012580 	call	2001258 <SD_read_lba>
 2001904:	803fee1e 	bne	r16,zero,20018c0 <search_for_filetype+0x268>
 2001908:	003ff606 	br	20018e4 <search_for_filetype+0x28c>
 200190c:	89800504 	addi	r6,r17,20
 2001910:	89400684 	addi	r5,r17,26
 2001914:	d8800444 	addi	r2,sp,17
 2001918:	1189883a 	add	r4,r2,r6
 200191c:	1145883a 	add	r2,r2,r5
 2001920:	11c00003 	ldbu	r7,0(r2)
 2001924:	20c00003 	ldbu	r3,0(r4)
 2001928:	998d883a 	add	r6,r19,r6
 200192c:	994b883a 	add	r5,r19,r5
 2001930:	19c7883a 	add	r3,r3,r7
 2001934:	30800003 	ldbu	r2,0(r6)
 2001938:	29000003 	ldbu	r4,0(r5)
 200193c:	1806923a 	slli	r3,r3,8
 2001940:	d1675543 	ldbu	r5,-25259(gp)
 2001944:	2089883a 	add	r4,r4,r2
 2001948:	20c9883a 	add	r4,r4,r3
 200194c:	213fff84 	addi	r4,r4,-2
 2001950:	20040f00 	call	20040f0 <__mulsi3>
 2001954:	d1a76217 	ldw	r6,-25208(gp)
 2001958:	d0e78d17 	ldw	r3,-25036(gp)
 200195c:	d9408417 	ldw	r5,528(sp)
 2001960:	b809883a 	mov	r4,r23
 2001964:	30cd883a 	add	r6,r6,r3
 2001968:	118d883a 	add	r6,r2,r6
 200196c:	000f883a 	mov	r7,zero
 2001970:	20016580 	call	2001658 <search_for_filetype>
 2001974:	103fa51e 	bne	r2,zero,200180c <search_for_filetype+0x1b4>
 2001978:	000b883a 	mov	r5,zero
 200197c:	2805883a 	mov	r2,r5
 2001980:	003fbd06 	br	2001878 <search_for_filetype+0x220>
 2001984:	9809883a 	mov	r4,r19
 2001988:	800b883a 	mov	r5,r16
 200198c:	01800044 	movi	r6,1
 2001990:	20012580 	call	2001258 <SD_read_lba>
 2001994:	802b883a 	mov	r21,r16
 2001998:	04800084 	movi	r18,2
 200199c:	003f4c06 	br	20016d0 <search_for_filetype+0x78>
 20019a0:	b80b883a 	mov	r5,r23
 20019a4:	01008074 	movhi	r4,513
 20019a8:	2104a004 	addi	r4,r4,4736
 20019ac:	20047540 	call	2004754 <printf>
 20019b0:	003fb106 	br	2001878 <search_for_filetype+0x220>
 20019b4:	01400044 	movi	r5,1
 20019b8:	2805883a 	mov	r2,r5
 20019bc:	003fae06 	br	2001878 <search_for_filetype+0x220>
 20019c0:	d9008417 	ldw	r4,528(sp)
 20019c4:	d9400104 	addi	r5,sp,4
 20019c8:	200493c0 	call	200493c <strcpy>
 20019cc:	88c00704 	addi	r3,r17,28
 20019d0:	88800684 	addi	r2,r17,26
 20019d4:	89400504 	addi	r5,r17,20
 20019d8:	d9800484 	addi	r6,sp,18
 20019dc:	30d3883a 	add	r9,r6,r3
 20019e0:	e0d7883a 	add	r11,fp,r3
 20019e4:	b089883a 	add	r4,r22,r2
 20019e8:	b14f883a 	add	r7,r22,r5
 20019ec:	b0d1883a 	add	r8,r22,r3
 20019f0:	23000003 	ldbu	r12,0(r4)
 20019f4:	39800003 	ldbu	r6,0(r7)
 20019f8:	42800003 	ldbu	r10,0(r8)
 20019fc:	49c00003 	ldbu	r7,0(r9)
 2001a00:	5a000003 	ldbu	r8,0(r11)
 2001a04:	98c7883a 	add	r3,r19,r3
 2001a08:	dac08417 	ldw	r11,528(sp)
 2001a0c:	9885883a 	add	r2,r19,r2
 2001a10:	994b883a 	add	r5,r19,r5
 2001a14:	2a400003 	ldbu	r9,0(r5)
 2001a18:	11000003 	ldbu	r4,0(r2)
 2001a1c:	330d883a 	add	r6,r6,r12
 2001a20:	18800003 	ldbu	r2,0(r3)
 2001a24:	5014923a 	slli	r10,r10,8
 2001a28:	4010963a 	slli	r8,r8,24
 2001a2c:	380e943a 	slli	r7,r7,16
 2001a30:	300c923a 	slli	r6,r6,8
 2001a34:	5c0002c5 	stb	r16,11(r11)
 2001a38:	d1675543 	ldbu	r5,-25259(gp)
 2001a3c:	2249883a 	add	r4,r4,r9
 2001a40:	1284b03a 	or	r2,r2,r10
 2001a44:	3a0eb03a 	or	r7,r7,r8
 2001a48:	2189883a 	add	r4,r4,r6
 2001a4c:	11c4b03a 	or	r2,r2,r7
 2001a50:	59000315 	stw	r4,12(r11)
 2001a54:	58800415 	stw	r2,16(r11)
 2001a58:	213fff84 	addi	r4,r4,-2
 2001a5c:	20040f00 	call	20040f0 <__mulsi3>
 2001a60:	d1278d17 	ldw	r4,-25036(gp)
 2001a64:	d0e76217 	ldw	r3,-25208(gp)
 2001a68:	000b883a 	mov	r5,zero
 2001a6c:	d0274f15 	stw	zero,-25284(gp)
 2001a70:	1907883a 	add	r3,r3,r4
 2001a74:	10c5883a 	add	r2,r2,r3
 2001a78:	d1275017 	ldw	r4,-25280(gp)
 2001a7c:	d8c08417 	ldw	r3,528(sp)
 2001a80:	21000044 	addi	r4,r4,1
 2001a84:	18800515 	stw	r2,20(r3)
 2001a88:	2805883a 	mov	r2,r5
 2001a8c:	18000615 	stw	zero,24(r3)
 2001a90:	d1275015 	stw	r4,-25280(gp)
 2001a94:	003f7806 	br	2001878 <search_for_filetype+0x220>

02001a98 <CalcFATSecAndOffset>:
 2001a98:	d0e77e17 	ldw	r3,-25096(gp)
 2001a9c:	deff7c04 	addi	sp,sp,-528
 2001aa0:	0083fd04 	movi	r2,4084
 2001aa4:	dc008015 	stw	r16,512(sp)
 2001aa8:	dfc08315 	stw	ra,524(sp)
 2001aac:	dcc08215 	stw	r19,520(sp)
 2001ab0:	dc408115 	stw	r17,516(sp)
 2001ab4:	2021883a 	mov	r16,r4
 2001ab8:	10c03036 	bltu	r2,r3,2001b7c <CalcFATSecAndOffset+0xe4>
 2001abc:	2004d07a 	srli	r2,r4,1
 2001ac0:	2085883a 	add	r2,r4,r2
 2001ac4:	d0a75715 	stw	r2,-25252(gp)
 2001ac8:	1023883a 	mov	r17,r2
 2001acc:	d4e76817 	ldw	r19,-25184(gp)
 2001ad0:	8809883a 	mov	r4,r17
 2001ad4:	980b883a 	mov	r5,r19
 2001ad8:	20040e00 	call	20040e0 <__udivsi3>
 2001adc:	d0e78217 	ldw	r3,-25080(gp)
 2001ae0:	8809883a 	mov	r4,r17
 2001ae4:	980b883a 	mov	r5,r19
 2001ae8:	10e3883a 	add	r17,r2,r3
 2001aec:	d4677615 	stw	r17,-25128(gp)
 2001af0:	20040e80 	call	20040e8 <__umodsi3>
 2001af4:	d0e78d17 	ldw	r3,-25036(gp)
 2001af8:	01808004 	movi	r6,512
 2001afc:	d809883a 	mov	r4,sp
 2001b00:	88e3883a 	add	r17,r17,r3
 2001b04:	000b883a 	mov	r5,zero
 2001b08:	d0a76615 	stw	r2,-25192(gp)
 2001b0c:	20046bc0 	call	20046bc <memset>
 2001b10:	d809883a 	mov	r4,sp
 2001b14:	880b883a 	mov	r5,r17
 2001b18:	01800044 	movi	r6,1
 2001b1c:	20012580 	call	2001258 <SD_read_lba>
 2001b20:	d0e77e17 	ldw	r3,-25096(gp)
 2001b24:	0083fd04 	movi	r2,4084
 2001b28:	10c01b36 	bltu	r2,r3,2001b98 <CalcFATSecAndOffset+0x100>
 2001b2c:	d0e76617 	ldw	r3,-25192(gp)
 2001b30:	00807fc4 	movi	r2,511
 2001b34:	18804a26 	beq	r3,r2,2001c60 <CalcFATSecAndOffset+0x1c8>
 2001b38:	8080004c 	andi	r2,r16,1
 2001b3c:	1005003a 	cmpeq	r2,r2,zero
 2001b40:	10003e1e 	bne	r2,zero,2001c3c <CalcFATSecAndOffset+0x1a4>
 2001b44:	d8c5883a 	add	r2,sp,r3
 2001b48:	10c00043 	ldbu	r3,1(r2)
 2001b4c:	11000003 	ldbu	r4,0(r2)
 2001b50:	1806923a 	slli	r3,r3,8
 2001b54:	20c8b03a 	or	r4,r4,r3
 2001b58:	200ed13a 	srli	r7,r4,4
 2001b5c:	d1e76c15 	stw	r7,-25168(gp)
 2001b60:	d1e76e15 	stw	r7,-25160(gp)
 2001b64:	dfc08317 	ldw	ra,524(sp)
 2001b68:	dcc08217 	ldw	r19,520(sp)
 2001b6c:	dc408117 	ldw	r17,516(sp)
 2001b70:	dc008017 	ldw	r16,512(sp)
 2001b74:	dec08404 	addi	sp,sp,528
 2001b78:	f800283a 	ret
 2001b7c:	00bffd14 	movui	r2,65524
 2001b80:	10c02a2e 	bgeu	r2,r3,2001c2c <CalcFATSecAndOffset+0x194>
 2001b84:	2105883a 	add	r2,r4,r4
 2001b88:	1085883a 	add	r2,r2,r2
 2001b8c:	1023883a 	mov	r17,r2
 2001b90:	d0a75715 	stw	r2,-25252(gp)
 2001b94:	003fcd06 	br	2001acc <CalcFATSecAndOffset+0x34>
 2001b98:	00bffd14 	movui	r2,65524
 2001b9c:	10c00e36 	bltu	r2,r3,2001bd8 <CalcFATSecAndOffset+0x140>
 2001ba0:	d0e76617 	ldw	r3,-25192(gp)
 2001ba4:	d8c9883a 	add	r4,sp,r3
 2001ba8:	20800043 	ldbu	r2,1(r4)
 2001bac:	20c00003 	ldbu	r3,0(r4)
 2001bb0:	1004923a 	slli	r2,r2,8
 2001bb4:	1886b03a 	or	r3,r3,r2
 2001bb8:	d0e76e15 	stw	r3,-25160(gp)
 2001bbc:	d0e76515 	stw	r3,-25196(gp)
 2001bc0:	dfc08317 	ldw	ra,524(sp)
 2001bc4:	dcc08217 	ldw	r19,520(sp)
 2001bc8:	dc408117 	ldw	r17,516(sp)
 2001bcc:	dc008017 	ldw	r16,512(sp)
 2001bd0:	dec08404 	addi	sp,sp,528
 2001bd4:	f800283a 	ret
 2001bd8:	d0a76617 	ldw	r2,-25192(gp)
 2001bdc:	d889883a 	add	r4,sp,r2
 2001be0:	214000c3 	ldbu	r5,3(r4)
 2001be4:	20800083 	ldbu	r2,2(r4)
 2001be8:	21800043 	ldbu	r6,1(r4)
 2001bec:	280a963a 	slli	r5,r5,24
 2001bf0:	1004943a 	slli	r2,r2,16
 2001bf4:	300c923a 	slli	r6,r6,8
 2001bf8:	20c00003 	ldbu	r3,0(r4)
 2001bfc:	1144b03a 	or	r2,r2,r5
 2001c00:	1083ffec 	andhi	r2,r2,4095
 2001c04:	1986b03a 	or	r3,r3,r6
 2001c08:	10c4b03a 	or	r2,r2,r3
 2001c0c:	d0a76e15 	stw	r2,-25160(gp)
 2001c10:	d0a75215 	stw	r2,-25272(gp)
 2001c14:	dfc08317 	ldw	ra,524(sp)
 2001c18:	dcc08217 	ldw	r19,520(sp)
 2001c1c:	dc408117 	ldw	r17,516(sp)
 2001c20:	dc008017 	ldw	r16,512(sp)
 2001c24:	dec08404 	addi	sp,sp,528
 2001c28:	f800283a 	ret
 2001c2c:	2105883a 	add	r2,r4,r4
 2001c30:	1023883a 	mov	r17,r2
 2001c34:	d0a75715 	stw	r2,-25252(gp)
 2001c38:	003fa406 	br	2001acc <CalcFATSecAndOffset+0x34>
 2001c3c:	d8c5883a 	add	r2,sp,r3
 2001c40:	10c00043 	ldbu	r3,1(r2)
 2001c44:	11000003 	ldbu	r4,0(r2)
 2001c48:	1806923a 	slli	r3,r3,8
 2001c4c:	20c8b03a 	or	r4,r4,r3
 2001c50:	21c3ffcc 	andi	r7,r4,4095
 2001c54:	d1e76c15 	stw	r7,-25168(gp)
 2001c58:	d1e76e15 	stw	r7,-25160(gp)
 2001c5c:	003fc106 	br	2001b64 <CalcFATSecAndOffset+0xcc>
 2001c60:	d1678d17 	ldw	r5,-25036(gp)
 2001c64:	d0a77617 	ldw	r2,-25128(gp)
 2001c68:	d9c07fc3 	ldbu	r7,511(sp)
 2001c6c:	29400044 	addi	r5,r5,1
 2001c70:	288b883a 	add	r5,r5,r2
 2001c74:	d809883a 	mov	r4,sp
 2001c78:	01800044 	movi	r6,1
 2001c7c:	d1e76c15 	stw	r7,-25168(gp)
 2001c80:	20012580 	call	2001258 <SD_read_lba>
 2001c84:	d8c00003 	ldbu	r3,0(sp)
 2001c88:	d1e76c17 	ldw	r7,-25168(gp)
 2001c8c:	18c003cc 	andi	r3,r3,15
 2001c90:	1806923a 	slli	r3,r3,8
 2001c94:	38ceb03a 	or	r7,r7,r3
 2001c98:	d1e76c15 	stw	r7,-25168(gp)
 2001c9c:	d1e76e15 	stw	r7,-25160(gp)
 2001ca0:	003fb006 	br	2001b64 <CalcFATSecAndOffset+0xcc>

02001ca4 <build_cluster_chain>:
 2001ca4:	30c00317 	ldw	r3,12(r6)
 2001ca8:	defff704 	addi	sp,sp,-36
 2001cac:	dc000015 	stw	r16,0(sp)
 2001cb0:	20c00015 	stw	r3,0(r4)
 2001cb4:	2021883a 	mov	r16,r4
 2001cb8:	1809883a 	mov	r4,r3
 2001cbc:	dc800215 	stw	r18,8(sp)
 2001cc0:	dfc00815 	stw	ra,32(sp)
 2001cc4:	ddc00715 	stw	r23,28(sp)
 2001cc8:	dd800615 	stw	r22,24(sp)
 2001ccc:	dd400515 	stw	r21,20(sp)
 2001cd0:	dd000415 	stw	r20,16(sp)
 2001cd4:	dcc00315 	stw	r19,12(sp)
 2001cd8:	dc400115 	stw	r17,4(sp)
 2001cdc:	2825883a 	mov	r18,r5
 2001ce0:	2001a980 	call	2001a98 <CalcFATSecAndOffset>
 2001ce4:	00800044 	movi	r2,1
 2001ce8:	14800f2e 	bgeu	r2,r18,2001d28 <build_cluster_chain+0x84>
 2001cec:	1023883a 	mov	r17,r2
 2001cf0:	04c3fd04 	movi	r19,4084
 2001cf4:	0543fdc4 	movi	r21,4087
 2001cf8:	053ffd14 	movui	r20,65524
 2001cfc:	05fffdd4 	movui	r23,65527
 2001d00:	05840034 	movhi	r22,4096
 2001d04:	b5bffdc4 	addi	r22,r22,-9
 2001d08:	d1276e17 	ldw	r4,-25160(gp)
 2001d0c:	d0a77e17 	ldw	r2,-25096(gp)
 2001d10:	81000115 	stw	r4,4(r16)
 2001d14:	98800f36 	bltu	r19,r2,2001d54 <build_cluster_chain+0xb0>
 2001d18:	a900102e 	bgeu	r21,r4,2001d5c <build_cluster_chain+0xb8>
 2001d1c:	8c400044 	addi	r17,r17,1
 2001d20:	84000104 	addi	r16,r16,4
 2001d24:	8cbff81e 	bne	r17,r18,2001d08 <build_cluster_chain+0x64>
 2001d28:	dfc00817 	ldw	ra,32(sp)
 2001d2c:	ddc00717 	ldw	r23,28(sp)
 2001d30:	dd800617 	ldw	r22,24(sp)
 2001d34:	dd400517 	ldw	r21,20(sp)
 2001d38:	dd000417 	ldw	r20,16(sp)
 2001d3c:	dcc00317 	ldw	r19,12(sp)
 2001d40:	dc800217 	ldw	r18,8(sp)
 2001d44:	dc400117 	ldw	r17,4(sp)
 2001d48:	dc000017 	ldw	r16,0(sp)
 2001d4c:	dec00904 	addi	sp,sp,36
 2001d50:	f800283a 	ret
 2001d54:	a0800636 	bltu	r20,r2,2001d70 <build_cluster_chain+0xcc>
 2001d58:	b93ff036 	bltu	r23,r4,2001d1c <build_cluster_chain+0x78>
 2001d5c:	8c400044 	addi	r17,r17,1
 2001d60:	2001a980 	call	2001a98 <CalcFATSecAndOffset>
 2001d64:	84000104 	addi	r16,r16,4
 2001d68:	8cbfe71e 	bne	r17,r18,2001d08 <build_cluster_chain+0x64>
 2001d6c:	003fee06 	br	2001d28 <build_cluster_chain+0x84>
 2001d70:	b13ffa2e 	bgeu	r22,r4,2001d5c <build_cluster_chain+0xb8>
 2001d74:	8c400044 	addi	r17,r17,1
 2001d78:	84000104 	addi	r16,r16,4
 2001d7c:	8cbfe21e 	bne	r17,r18,2001d08 <build_cluster_chain+0x64>
 2001d80:	003fe906 	br	2001d28 <build_cluster_chain+0x84>

02001d84 <prevsong>:
 2001d84:	d0a75017 	ldw	r2,-25280(gp)
 2001d88:	defff704 	addi	sp,sp,-36
 2001d8c:	dcc00315 	stw	r19,12(sp)
 2001d90:	dc000015 	stw	r16,0(sp)
 2001d94:	04c00044 	movi	r19,1
 2001d98:	040080b4 	movhi	r16,514
 2001d9c:	84288b04 	addi	r16,r16,-24020
 2001da0:	000d883a 	mov	r6,zero
 2001da4:	980f883a 	mov	r7,r19
 2001da8:	800b883a 	mov	r5,r16
 2001dac:	10bfff84 	addi	r2,r2,-2
 2001db0:	01008074 	movhi	r4,513
 2001db4:	2104a804 	addi	r4,r4,4768
 2001db8:	dfc00815 	stw	ra,32(sp)
 2001dbc:	dc800215 	stw	r18,8(sp)
 2001dc0:	dc400115 	stw	r17,4(sp)
 2001dc4:	ddc00715 	stw	r23,28(sp)
 2001dc8:	dd800615 	stw	r22,24(sp)
 2001dcc:	dd400515 	stw	r21,20(sp)
 2001dd0:	dd000415 	stw	r20,16(sp)
 2001dd4:	d0a75015 	stw	r2,-25280(gp)
 2001dd8:	20016580 	call	2001658 <search_for_filetype>
 2001ddc:	8009883a 	mov	r4,r16
 2001de0:	20003d40 	call	20003d4 <LCD_File_Buffering>
 2001de4:	d1275543 	ldbu	r4,-25259(gp)
 2001de8:	d1676817 	ldw	r5,-25184(gp)
 2001dec:	04408074 	movhi	r17,513
 2001df0:	8c54fe04 	addi	r17,r17,21496
 2001df4:	20040f00 	call	20040f0 <__mulsi3>
 2001df8:	81000417 	ldw	r4,16(r16)
 2001dfc:	100b883a 	mov	r5,r2
 2001e00:	20040e00 	call	20040e0 <__udivsi3>
 2001e04:	1009883a 	mov	r4,r2
 2001e08:	2003e100 	call	2003e10 <__floatunsidf>
 2001e0c:	180b883a 	mov	r5,r3
 2001e10:	1009883a 	mov	r4,r2
 2001e14:	200327c0 	call	200327c <ceil>
 2001e18:	0011883a 	mov	r8,zero
 2001e1c:	024ffc34 	movhi	r9,16368
 2001e20:	180b883a 	mov	r5,r3
 2001e24:	480f883a 	mov	r7,r9
 2001e28:	1009883a 	mov	r4,r2
 2001e2c:	400d883a 	mov	r6,r8
 2001e30:	2003b440 	call	2003b44 <__adddf3>
 2001e34:	1009883a 	mov	r4,r2
 2001e38:	180b883a 	mov	r5,r3
 2001e3c:	2003d380 	call	2003d38 <__fixdfsi>
 2001e40:	1025883a 	mov	r18,r2
 2001e44:	80800317 	ldw	r2,12(r16)
 2001e48:	d4a77f15 	stw	r18,-25092(gp)
 2001e4c:	1009883a 	mov	r4,r2
 2001e50:	88800015 	stw	r2,0(r17)
 2001e54:	2001a980 	call	2001a98 <CalcFATSecAndOffset>
 2001e58:	9c80102e 	bgeu	r19,r18,2001e9c <prevsong+0x118>
 2001e5c:	9821883a 	mov	r16,r19
 2001e60:	8c400104 	addi	r17,r17,4
 2001e64:	04c3fd04 	movi	r19,4084
 2001e68:	0543fdc4 	movi	r21,4087
 2001e6c:	053ffd14 	movui	r20,65524
 2001e70:	05fffdd4 	movui	r23,65527
 2001e74:	05840034 	movhi	r22,4096
 2001e78:	b5bffdc4 	addi	r22,r22,-9
 2001e7c:	d1276e17 	ldw	r4,-25160(gp)
 2001e80:	d0a77e17 	ldw	r2,-25096(gp)
 2001e84:	89000015 	stw	r4,0(r17)
 2001e88:	98801236 	bltu	r19,r2,2001ed4 <prevsong+0x150>
 2001e8c:	a900132e 	bgeu	r21,r4,2001edc <prevsong+0x158>
 2001e90:	84000044 	addi	r16,r16,1
 2001e94:	8c400104 	addi	r17,r17,4
 2001e98:	943ff81e 	bne	r18,r16,2001e7c <prevsong+0xf8>
 2001e9c:	d1677a17 	ldw	r5,-25112(gp)
 2001ea0:	010080b4 	movhi	r4,514
 2001ea4:	21288b04 	addi	r4,r4,-24020
 2001ea8:	dfc00817 	ldw	ra,32(sp)
 2001eac:	ddc00717 	ldw	r23,28(sp)
 2001eb0:	dd800617 	ldw	r22,24(sp)
 2001eb4:	dd400517 	ldw	r21,20(sp)
 2001eb8:	dd000417 	ldw	r20,16(sp)
 2001ebc:	dcc00317 	ldw	r19,12(sp)
 2001ec0:	dc800217 	ldw	r18,8(sp)
 2001ec4:	dc400117 	ldw	r17,4(sp)
 2001ec8:	dc000017 	ldw	r16,0(sp)
 2001ecc:	dec00904 	addi	sp,sp,36
 2001ed0:	20005041 	jmpi	2000504 <LCD_Display>
 2001ed4:	a0800636 	bltu	r20,r2,2001ef0 <prevsong+0x16c>
 2001ed8:	b93fed36 	bltu	r23,r4,2001e90 <prevsong+0x10c>
 2001edc:	84000044 	addi	r16,r16,1
 2001ee0:	2001a980 	call	2001a98 <CalcFATSecAndOffset>
 2001ee4:	8c400104 	addi	r17,r17,4
 2001ee8:	943fe41e 	bne	r18,r16,2001e7c <prevsong+0xf8>
 2001eec:	003feb06 	br	2001e9c <prevsong+0x118>
 2001ef0:	b13ffa2e 	bgeu	r22,r4,2001edc <prevsong+0x158>
 2001ef4:	84000044 	addi	r16,r16,1
 2001ef8:	8c400104 	addi	r17,r17,4
 2001efc:	943fdf1e 	bne	r18,r16,2001e7c <prevsong+0xf8>
 2001f00:	003fe606 	br	2001e9c <prevsong+0x118>

02001f04 <nextsong>:
 2001f04:	defff704 	addi	sp,sp,-36
 2001f08:	dcc00315 	stw	r19,12(sp)
 2001f0c:	dc000015 	stw	r16,0(sp)
 2001f10:	04c00044 	movi	r19,1
 2001f14:	040080b4 	movhi	r16,514
 2001f18:	84288b04 	addi	r16,r16,-24020
 2001f1c:	000d883a 	mov	r6,zero
 2001f20:	980f883a 	mov	r7,r19
 2001f24:	800b883a 	mov	r5,r16
 2001f28:	01008074 	movhi	r4,513
 2001f2c:	2104a804 	addi	r4,r4,4768
 2001f30:	dfc00815 	stw	ra,32(sp)
 2001f34:	dc800215 	stw	r18,8(sp)
 2001f38:	dc400115 	stw	r17,4(sp)
 2001f3c:	ddc00715 	stw	r23,28(sp)
 2001f40:	dd800615 	stw	r22,24(sp)
 2001f44:	dd400515 	stw	r21,20(sp)
 2001f48:	dd000415 	stw	r20,16(sp)
 2001f4c:	20016580 	call	2001658 <search_for_filetype>
 2001f50:	8009883a 	mov	r4,r16
 2001f54:	20003d40 	call	20003d4 <LCD_File_Buffering>
 2001f58:	d1275543 	ldbu	r4,-25259(gp)
 2001f5c:	d1676817 	ldw	r5,-25184(gp)
 2001f60:	04408074 	movhi	r17,513
 2001f64:	8c54fe04 	addi	r17,r17,21496
 2001f68:	20040f00 	call	20040f0 <__mulsi3>
 2001f6c:	81000417 	ldw	r4,16(r16)
 2001f70:	100b883a 	mov	r5,r2
 2001f74:	20040e00 	call	20040e0 <__udivsi3>
 2001f78:	1009883a 	mov	r4,r2
 2001f7c:	2003e100 	call	2003e10 <__floatunsidf>
 2001f80:	180b883a 	mov	r5,r3
 2001f84:	1009883a 	mov	r4,r2
 2001f88:	200327c0 	call	200327c <ceil>
 2001f8c:	0011883a 	mov	r8,zero
 2001f90:	024ffc34 	movhi	r9,16368
 2001f94:	180b883a 	mov	r5,r3
 2001f98:	480f883a 	mov	r7,r9
 2001f9c:	1009883a 	mov	r4,r2
 2001fa0:	400d883a 	mov	r6,r8
 2001fa4:	2003b440 	call	2003b44 <__adddf3>
 2001fa8:	1009883a 	mov	r4,r2
 2001fac:	180b883a 	mov	r5,r3
 2001fb0:	2003d380 	call	2003d38 <__fixdfsi>
 2001fb4:	1025883a 	mov	r18,r2
 2001fb8:	80800317 	ldw	r2,12(r16)
 2001fbc:	d4a77f15 	stw	r18,-25092(gp)
 2001fc0:	1009883a 	mov	r4,r2
 2001fc4:	88800015 	stw	r2,0(r17)
 2001fc8:	2001a980 	call	2001a98 <CalcFATSecAndOffset>
 2001fcc:	9c80102e 	bgeu	r19,r18,2002010 <nextsong+0x10c>
 2001fd0:	9821883a 	mov	r16,r19
 2001fd4:	8c400104 	addi	r17,r17,4
 2001fd8:	04c3fd04 	movi	r19,4084
 2001fdc:	0543fdc4 	movi	r21,4087
 2001fe0:	053ffd14 	movui	r20,65524
 2001fe4:	05fffdd4 	movui	r23,65527
 2001fe8:	05840034 	movhi	r22,4096
 2001fec:	b5bffdc4 	addi	r22,r22,-9
 2001ff0:	d1276e17 	ldw	r4,-25160(gp)
 2001ff4:	d0a77e17 	ldw	r2,-25096(gp)
 2001ff8:	89000015 	stw	r4,0(r17)
 2001ffc:	98801236 	bltu	r19,r2,2002048 <nextsong+0x144>
 2002000:	a900132e 	bgeu	r21,r4,2002050 <nextsong+0x14c>
 2002004:	84000044 	addi	r16,r16,1
 2002008:	8c400104 	addi	r17,r17,4
 200200c:	943ff81e 	bne	r18,r16,2001ff0 <nextsong+0xec>
 2002010:	d1677a17 	ldw	r5,-25112(gp)
 2002014:	010080b4 	movhi	r4,514
 2002018:	21288b04 	addi	r4,r4,-24020
 200201c:	dfc00817 	ldw	ra,32(sp)
 2002020:	ddc00717 	ldw	r23,28(sp)
 2002024:	dd800617 	ldw	r22,24(sp)
 2002028:	dd400517 	ldw	r21,20(sp)
 200202c:	dd000417 	ldw	r20,16(sp)
 2002030:	dcc00317 	ldw	r19,12(sp)
 2002034:	dc800217 	ldw	r18,8(sp)
 2002038:	dc400117 	ldw	r17,4(sp)
 200203c:	dc000017 	ldw	r16,0(sp)
 2002040:	dec00904 	addi	sp,sp,36
 2002044:	20005041 	jmpi	2000504 <LCD_Display>
 2002048:	a0800636 	bltu	r20,r2,2002064 <nextsong+0x160>
 200204c:	b93fed36 	bltu	r23,r4,2002004 <nextsong+0x100>
 2002050:	84000044 	addi	r16,r16,1
 2002054:	2001a980 	call	2001a98 <CalcFATSecAndOffset>
 2002058:	8c400104 	addi	r17,r17,4
 200205c:	943fe41e 	bne	r18,r16,2001ff0 <nextsong+0xec>
 2002060:	003feb06 	br	2002010 <nextsong+0x10c>
 2002064:	b13ffa2e 	bgeu	r22,r4,2002050 <nextsong+0x14c>
 2002068:	84000044 	addi	r16,r16,1
 200206c:	8c400104 	addi	r17,r17,4
 2002070:	943fdf1e 	bne	r18,r16,2001ff0 <nextsong+0xec>
 2002074:	003fe606 	br	2002010 <nextsong+0x10c>

02002078 <init_bs>:
 2002078:	deff7404 	addi	sp,sp,-560
 200207c:	000b883a 	mov	r5,zero
 2002080:	01808004 	movi	r6,512
 2002084:	d809883a 	mov	r4,sp
 2002088:	dfc08b15 	stw	ra,556(sp)
 200208c:	df008a15 	stw	fp,552(sp)
 2002090:	ddc08915 	stw	r23,548(sp)
 2002094:	dd808815 	stw	r22,544(sp)
 2002098:	dd408715 	stw	r21,540(sp)
 200209c:	dd008615 	stw	r20,536(sp)
 20020a0:	dcc08515 	stw	r19,532(sp)
 20020a4:	dc808415 	stw	r18,528(sp)
 20020a8:	dc408315 	stw	r17,524(sp)
 20020ac:	dc008215 	stw	r16,520(sp)
 20020b0:	20046bc0 	call	20046bc <memset>
 20020b4:	d1678d17 	ldw	r5,-25036(gp)
 20020b8:	d809883a 	mov	r4,sp
 20020bc:	01800044 	movi	r6,1
 20020c0:	20012580 	call	2001258 <SD_read_lba>
 20020c4:	d8c07f83 	ldbu	r3,510(sp)
 20020c8:	00801544 	movi	r2,85
 20020cc:	18800e26 	beq	r3,r2,2002108 <init_bs+0x90>
 20020d0:	00c00044 	movi	r3,1
 20020d4:	1805883a 	mov	r2,r3
 20020d8:	dfc08b17 	ldw	ra,556(sp)
 20020dc:	df008a17 	ldw	fp,552(sp)
 20020e0:	ddc08917 	ldw	r23,548(sp)
 20020e4:	dd808817 	ldw	r22,544(sp)
 20020e8:	dd408717 	ldw	r21,540(sp)
 20020ec:	dd008617 	ldw	r20,536(sp)
 20020f0:	dcc08517 	ldw	r19,532(sp)
 20020f4:	dc808417 	ldw	r18,528(sp)
 20020f8:	dc408317 	ldw	r17,524(sp)
 20020fc:	dc008217 	ldw	r16,520(sp)
 2002100:	dec08c04 	addi	sp,sp,560
 2002104:	f800283a 	ret
 2002108:	d8c07fc3 	ldbu	r3,511(sp)
 200210c:	00802a84 	movi	r2,170
 2002110:	18bfef1e 	bne	r3,r2,20020d0 <init_bs+0x58>
 2002114:	d8800303 	ldbu	r2,12(sp)
 2002118:	d8c003c3 	ldbu	r3,15(sp)
 200211c:	d94002c3 	ldbu	r5,11(sp)
 2002120:	1004923a 	slli	r2,r2,8
 2002124:	da000383 	ldbu	r8,14(sp)
 2002128:	1806923a 	slli	r3,r3,8
 200212c:	288b883a 	add	r5,r5,r2
 2002130:	d8800083 	ldbu	r2,2(sp)
 2002134:	40f9883a 	add	fp,r8,r3
 2002138:	d2276144 	addi	r8,gp,-25211
 200213c:	40800085 	stb	r2,2(r8)
 2002140:	d8800003 	ldbu	r2,0(sp)
 2002144:	d8c00283 	ldbu	r3,10(sp)
 2002148:	d1a77284 	addi	r6,gp,-25142
 200214c:	d0a76145 	stb	r2,-25211(gp)
 2002150:	d88000c3 	ldbu	r2,3(sp)
 2002154:	30c001c5 	stb	r3,7(r6)
 2002158:	d8c00043 	ldbu	r3,1(sp)
 200215c:	d0a77285 	stb	r2,-25142(gp)
 2002160:	d8800143 	ldbu	r2,5(sp)
 2002164:	40c00045 	stb	r3,1(r8)
 2002168:	d8c00103 	ldbu	r3,4(sp)
 200216c:	30800085 	stb	r2,2(r6)
 2002170:	d88001c3 	ldbu	r2,7(sp)
 2002174:	d9000343 	ldbu	r4,13(sp)
 2002178:	30c00045 	stb	r3,1(r6)
 200217c:	d8c00183 	ldbu	r3,6(sp)
 2002180:	30800105 	stb	r2,4(r6)
 2002184:	d8800243 	ldbu	r2,9(sp)
 2002188:	d9008145 	stb	r4,517(sp)
 200218c:	30c000c5 	stb	r3,3(r6)
 2002190:	d9000403 	ldbu	r4,16(sp)
 2002194:	d8c00203 	ldbu	r3,8(sp)
 2002198:	30800185 	stb	r2,6(r6)
 200219c:	d8808143 	ldbu	r2,517(sp)
 20021a0:	30c00145 	stb	r3,5(r6)
 20021a4:	d9008105 	stb	r4,516(sp)
 20021a8:	d1676815 	stw	r5,-25184(gp)
 20021ac:	d9c00483 	ldbu	r7,18(sp)
 20021b0:	d9000443 	ldbu	r4,17(sp)
 20021b4:	d0a75545 	stb	r2,-25259(gp)
 20021b8:	d8808103 	ldbu	r2,516(sp)
 20021bc:	db000843 	ldbu	r12,33(sp)
 20021c0:	da000883 	ldbu	r8,34(sp)
 20021c4:	da8008c3 	ldbu	r10,35(sp)
 20021c8:	d0a76305 	stb	r2,-25204(gp)
 20021cc:	6018923a 	slli	r12,r12,8
 20021d0:	5014963a 	slli	r10,r10,24
 20021d4:	4010943a 	slli	r8,r8,16
 20021d8:	d8800803 	ldbu	r2,32(sp)
 20021dc:	380e923a 	slli	r7,r7,8
 20021e0:	4291883a 	add	r8,r8,r10
 20021e4:	1305883a 	add	r2,r2,r12
 20021e8:	dc400743 	ldbu	r17,29(sp)
 20021ec:	da400783 	ldbu	r9,30(sp)
 20021f0:	dac007c3 	ldbu	r11,31(sp)
 20021f4:	1205883a 	add	r2,r2,r8
 20021f8:	db400503 	ldbu	r13,20(sp)
 20021fc:	db8005c3 	ldbu	r14,23(sp)
 2002200:	dbc00643 	ldbu	r15,25(sp)
 2002204:	dc0006c3 	ldbu	r16,27(sp)
 2002208:	21c9883a 	add	r4,r4,r7
 200220c:	d8808015 	stw	r2,512(sp)
 2002210:	d8800543 	ldbu	r2,21(sp)
 2002214:	d1275615 	stw	r4,-25256(gp)
 2002218:	5816963a 	slli	r11,r11,24
 200221c:	8822923a 	slli	r17,r17,8
 2002220:	4812943a 	slli	r9,r9,16
 2002224:	2008917a 	slli	r4,r4,5
 2002228:	d9c00703 	ldbu	r7,28(sp)
 200222c:	681a923a 	slli	r13,r13,8
 2002230:	701c923a 	slli	r14,r14,8
 2002234:	781e923a 	slli	r15,r15,8
 2002238:	dc8004c3 	ldbu	r18,19(sp)
 200223c:	8020923a 	slli	r16,r16,8
 2002240:	dcc00583 	ldbu	r19,22(sp)
 2002244:	d8c00603 	ldbu	r3,24(sp)
 2002248:	d9800683 	ldbu	r6,26(sp)
 200224c:	d0a78905 	stb	r2,-25052(gp)
 2002250:	d8808017 	ldw	r2,512(sp)
 2002254:	4ad3883a 	add	r9,r9,r11
 2002258:	2909883a 	add	r4,r5,r4
 200225c:	3c4f883a 	add	r7,r7,r17
 2002260:	936f883a 	add	r23,r18,r13
 2002264:	1bc7883a 	add	r3,r3,r15
 2002268:	9ba5883a 	add	r18,r19,r14
 200226c:	340d883a 	add	r6,r6,r16
 2002270:	3a4f883a 	add	r7,r7,r9
 2002274:	213fffc4 	addi	r4,r4,-1
 2002278:	d7278215 	stw	fp,-25080(gp)
 200227c:	d0e75c15 	stw	r3,-25232(gp)
 2002280:	d1a78415 	stw	r6,-25072(gp)
 2002284:	d1e75d15 	stw	r7,-25228(gp)
 2002288:	d5e77015 	stw	r23,-25152(gp)
 200228c:	d4a76415 	stw	r18,-25200(gp)
 2002290:	d0a77b15 	stw	r2,-25108(gp)
 2002294:	20040e00 	call	20040e0 <__udivsi3>
 2002298:	102d883a 	mov	r22,r2
 200229c:	d0a78115 	stw	r2,-25084(gp)
 20022a0:	90007b1e 	bne	r18,zero,2002490 <init_bs+0x418>
 20022a4:	dd400943 	ldbu	r21,37(sp)
 20022a8:	d8800983 	ldbu	r2,38(sp)
 20022ac:	dc4009c3 	ldbu	r17,39(sp)
 20022b0:	d9000903 	ldbu	r4,36(sp)
 20022b4:	a82a923a 	slli	r21,r21,8
 20022b8:	1004943a 	slli	r2,r2,16
 20022bc:	8822963a 	slli	r17,r17,24
 20022c0:	dc800b43 	ldbu	r18,45(sp)
 20022c4:	da800b83 	ldbu	r10,46(sp)
 20022c8:	db400bc3 	ldbu	r13,47(sp)
 20022cc:	1445883a 	add	r2,r2,r17
 20022d0:	2549883a 	add	r4,r4,r21
 20022d4:	2089883a 	add	r4,r4,r2
 20022d8:	db801103 	ldbu	r14,68(sp)
 20022dc:	d0a76917 	ldw	r2,-25180(gp)
 20022e0:	dac01143 	ldbu	r11,69(sp)
 20022e4:	db001183 	ldbu	r12,70(sp)
 20022e8:	681a963a 	slli	r13,r13,24
 20022ec:	d8c00b03 	ldbu	r3,44(sp)
 20022f0:	9024923a 	slli	r18,r18,8
 20022f4:	5014943a 	slli	r10,r10,16
 20022f8:	dbc00a43 	ldbu	r15,41(sp)
 20022fc:	dc000ac3 	ldbu	r16,43(sp)
 2002300:	dcc00c43 	ldbu	r19,49(sp)
 2002304:	dd000cc3 	ldbu	r20,51(sp)
 2002308:	701c923a 	slli	r14,r14,8
 200230c:	6018963a 	slli	r12,r12,24
 2002310:	da4010c3 	ldbu	r9,67(sp)
 2002314:	5355883a 	add	r10,r10,r13
 2002318:	d0a76a15 	stw	r2,-25176(gp)
 200231c:	5816943a 	slli	r11,r11,16
 2002320:	d8801003 	ldbu	r2,64(sp)
 2002324:	1c87883a 	add	r3,r3,r18
 2002328:	1a87883a 	add	r3,r3,r10
 200232c:	781e923a 	slli	r15,r15,8
 2002330:	8020923a 	slli	r16,r16,8
 2002334:	d9400a03 	ldbu	r5,40(sp)
 2002338:	d9800a83 	ldbu	r6,42(sp)
 200233c:	d9c00c03 	ldbu	r7,48(sp)
 2002340:	da000c83 	ldbu	r8,50(sp)
 2002344:	9826923a 	slli	r19,r19,8
 2002348:	a028923a 	slli	r20,r20,8
 200234c:	d0e75815 	stw	r3,-25248(gp)
 2002350:	d8c01083 	ldbu	r3,66(sp)
 2002354:	4b93883a 	add	r9,r9,r14
 2002358:	5b17883a 	add	r11,r11,r12
 200235c:	d0a75b05 	stb	r2,-25236(gp)
 2002360:	d88011c3 	ldbu	r2,71(sp)
 2002364:	2bcb883a 	add	r5,r5,r15
 2002368:	340d883a 	add	r6,r6,r16
 200236c:	3ccf883a 	add	r7,r7,r19
 2002370:	4511883a 	add	r8,r8,r20
 2002374:	4ad3883a 	add	r9,r9,r11
 2002378:	d1675915 	stw	r5,-25244(gp)
 200237c:	d1a78c15 	stw	r6,-25040(gp)
 2002380:	014080b4 	movhi	r5,514
 2002384:	29689204 	addi	r5,r5,-23992
 2002388:	d1e78815 	stw	r7,-25056(gp)
 200238c:	d2276b15 	stw	r8,-25172(gp)
 2002390:	d0e75105 	stb	r3,-25276(gp)
 2002394:	d2678515 	stw	r9,-25068(gp)
 2002398:	d1276915 	stw	r4,-25180(gp)
 200239c:	28800005 	stb	r2,0(r5)
 20023a0:	d8801443 	ldbu	r2,81(sp)
 20023a4:	d8c01203 	ldbu	r3,72(sp)
 20023a8:	d1a75f04 	addi	r6,gp,-25220
 20023ac:	28800285 	stb	r2,10(r5)
 20023b0:	d8801243 	ldbu	r2,73(sp)
 20023b4:	28c00045 	stb	r3,1(r5)
 20023b8:	d8c01283 	ldbu	r3,74(sp)
 20023bc:	28800085 	stb	r2,2(r5)
 20023c0:	d88012c3 	ldbu	r2,75(sp)
 20023c4:	28c000c5 	stb	r3,3(r5)
 20023c8:	d8c01303 	ldbu	r3,76(sp)
 20023cc:	28800105 	stb	r2,4(r5)
 20023d0:	d8801343 	ldbu	r2,77(sp)
 20023d4:	28c00145 	stb	r3,5(r5)
 20023d8:	d8c01383 	ldbu	r3,78(sp)
 20023dc:	28800185 	stb	r2,6(r5)
 20023e0:	d88013c3 	ldbu	r2,79(sp)
 20023e4:	28c001c5 	stb	r3,7(r5)
 20023e8:	d8c01403 	ldbu	r3,80(sp)
 20023ec:	28800205 	stb	r2,8(r5)
 20023f0:	d8801483 	ldbu	r2,82(sp)
 20023f4:	28c00245 	stb	r3,9(r5)
 20023f8:	d8c014c3 	ldbu	r3,83(sp)
 20023fc:	d0a75f05 	stb	r2,-25220(gp)
 2002400:	d8801503 	ldbu	r2,84(sp)
 2002404:	30c00045 	stb	r3,1(r6)
 2002408:	d8c01543 	ldbu	r3,85(sp)
 200240c:	30800085 	stb	r2,2(r6)
 2002410:	d8801583 	ldbu	r2,86(sp)
 2002414:	30c000c5 	stb	r3,3(r6)
 2002418:	d8c015c3 	ldbu	r3,87(sp)
 200241c:	30800105 	stb	r2,4(r6)
 2002420:	d8801603 	ldbu	r2,88(sp)
 2002424:	30c00145 	stb	r3,5(r6)
 2002428:	30800185 	stb	r2,6(r6)
 200242c:	d8801643 	ldbu	r2,89(sp)
 2002430:	dc008103 	ldbu	r16,516(sp)
 2002434:	308001c5 	stb	r2,7(r6)
 2002438:	800b883a 	mov	r5,r16
 200243c:	20040f00 	call	20040f0 <__mulsi3>
 2002440:	e085883a 	add	r2,fp,r2
 2002444:	b087883a 	add	r3,r22,r2
 2002448:	d0e76215 	stw	r3,-25208(gp)
 200244c:	d0a75a15 	stw	r2,-25240(gp)
 2002450:	b8005026 	beq	r23,zero,2002594 <init_bs+0x51c>
 2002454:	d5e77d15 	stw	r23,-25100(gp)
 2002458:	d1676a17 	ldw	r5,-25176(gp)
 200245c:	8009883a 	mov	r4,r16
 2002460:	20040f00 	call	20040f0 <__mulsi3>
 2002464:	d0e77d17 	ldw	r3,-25100(gp)
 2002468:	e085883a 	add	r2,fp,r2
 200246c:	b085883a 	add	r2,r22,r2
 2002470:	d9408143 	ldbu	r5,517(sp)
 2002474:	1887c83a 	sub	r3,r3,r2
 2002478:	1809883a 	mov	r4,r3
 200247c:	d0e77c15 	stw	r3,-25104(gp)
 2002480:	20040e00 	call	20040e0 <__udivsi3>
 2002484:	0007883a 	mov	r3,zero
 2002488:	d0a77e15 	stw	r2,-25096(gp)
 200248c:	003f1106 	br	20020d4 <init_bs+0x5c>
 2002490:	d9000a03 	ldbu	r4,40(sp)
 2002494:	d8800a43 	ldbu	r2,41(sp)
 2002498:	d8c00a83 	ldbu	r3,42(sp)
 200249c:	2008923a 	slli	r4,r4,8
 20024a0:	d94009c3 	ldbu	r5,39(sp)
 20024a4:	1806963a 	slli	r3,r3,24
 20024a8:	1004943a 	slli	r2,r2,16
 20024ac:	290b883a 	add	r5,r5,r4
 20024b0:	010080f4 	movhi	r4,515
 20024b4:	213f36c4 	addi	r4,r4,-805
 20024b8:	10c5883a 	add	r2,r2,r3
 20024bc:	288b883a 	add	r5,r5,r2
 20024c0:	d8800d43 	ldbu	r2,53(sp)
 20024c4:	d8c00903 	ldbu	r3,36(sp)
 20024c8:	d1676715 	stw	r5,-25188(gp)
 20024cc:	20800285 	stb	r2,10(r4)
 20024d0:	d8800983 	ldbu	r2,38(sp)
 20024d4:	d0e78605 	stb	r3,-25064(gp)
 20024d8:	d8c00b03 	ldbu	r3,44(sp)
 20024dc:	d0a76d05 	stb	r2,-25164(gp)
 20024e0:	d8800ac3 	ldbu	r2,43(sp)
 20024e4:	20c00045 	stb	r3,1(r4)
 20024e8:	d8c00b83 	ldbu	r3,46(sp)
 20024ec:	20800005 	stb	r2,0(r4)
 20024f0:	d8800b43 	ldbu	r2,45(sp)
 20024f4:	20c000c5 	stb	r3,3(r4)
 20024f8:	d8c00c03 	ldbu	r3,48(sp)
 20024fc:	20800085 	stb	r2,2(r4)
 2002500:	d8800bc3 	ldbu	r2,47(sp)
 2002504:	20c00145 	stb	r3,5(r4)
 2002508:	d8c00c83 	ldbu	r3,50(sp)
 200250c:	20800105 	stb	r2,4(r4)
 2002510:	d8800c43 	ldbu	r2,49(sp)
 2002514:	20c001c5 	stb	r3,7(r4)
 2002518:	d8c00d03 	ldbu	r3,52(sp)
 200251c:	20800185 	stb	r2,6(r4)
 2002520:	d8800cc3 	ldbu	r2,51(sp)
 2002524:	20c00245 	stb	r3,9(r4)
 2002528:	d4a76a15 	stw	r18,-25176(gp)
 200252c:	20800205 	stb	r2,8(r4)
 2002530:	d8800d83 	ldbu	r2,54(sp)
 2002534:	d1a75344 	addi	r6,gp,-25267
 2002538:	9009883a 	mov	r4,r18
 200253c:	d0a75345 	stb	r2,-25267(gp)
 2002540:	d8800f43 	ldbu	r2,61(sp)
 2002544:	d8c00dc3 	ldbu	r3,55(sp)
 2002548:	dc408103 	ldbu	r17,516(sp)
 200254c:	30800185 	stb	r2,6(r6)
 2002550:	30c00045 	stb	r3,1(r6)
 2002554:	d8800e03 	ldbu	r2,56(sp)
 2002558:	d8c00e43 	ldbu	r3,57(sp)
 200255c:	880b883a 	mov	r5,r17
 2002560:	30800085 	stb	r2,2(r6)
 2002564:	30c000c5 	stb	r3,3(r6)
 2002568:	d8800e83 	ldbu	r2,58(sp)
 200256c:	d8c00ec3 	ldbu	r3,59(sp)
 2002570:	8821883a 	mov	r16,r17
 2002574:	30800105 	stb	r2,4(r6)
 2002578:	30c00145 	stb	r3,5(r6)
 200257c:	20040f00 	call	20040f0 <__mulsi3>
 2002580:	e085883a 	add	r2,fp,r2
 2002584:	b087883a 	add	r3,r22,r2
 2002588:	d0e76215 	stw	r3,-25208(gp)
 200258c:	d0a75a15 	stw	r2,-25240(gp)
 2002590:	b83fb01e 	bne	r23,zero,2002454 <init_bs+0x3dc>
 2002594:	d9008017 	ldw	r4,512(sp)
 2002598:	d1277d15 	stw	r4,-25100(gp)
 200259c:	003fae06 	br	2002458 <init_bs+0x3e0>

020025a0 <init_mbr>:
 20025a0:	deff7f04 	addi	sp,sp,-516
 20025a4:	d809883a 	mov	r4,sp
 20025a8:	000b883a 	mov	r5,zero
 20025ac:	01808004 	movi	r6,512
 20025b0:	dfc08015 	stw	ra,512(sp)
 20025b4:	20046bc0 	call	20046bc <memset>
 20025b8:	d809883a 	mov	r4,sp
 20025bc:	000b883a 	mov	r5,zero
 20025c0:	01800044 	movi	r6,1
 20025c4:	20012580 	call	2001258 <SD_read_lba>
 20025c8:	d8c07f83 	ldbu	r3,510(sp)
 20025cc:	00801544 	movi	r2,85
 20025d0:	18800526 	beq	r3,r2,20025e8 <init_mbr+0x48>
 20025d4:	02800044 	movi	r10,1
 20025d8:	5005883a 	mov	r2,r10
 20025dc:	dfc08017 	ldw	ra,512(sp)
 20025e0:	dec08104 	addi	sp,sp,516
 20025e4:	f800283a 	ret
 20025e8:	d8c07fc3 	ldbu	r3,511(sp)
 20025ec:	00802a84 	movi	r2,170
 20025f0:	d2e78b04 	addi	r11,gp,-25044
 20025f4:	d3277904 	addi	r12,gp,-25116
 20025f8:	0015883a 	mov	r10,zero
 20025fc:	18bff51e 	bne	r3,r2,20025d4 <init_mbr+0x34>
 2002600:	d9c071c3 	ldbu	r7,455(sp)
 2002604:	d8807203 	ldbu	r2,456(sp)
 2002608:	d9407243 	ldbu	r5,457(sp)
 200260c:	d98072c3 	ldbu	r6,459(sp)
 2002610:	d8c07303 	ldbu	r3,460(sp)
 2002614:	d9007343 	ldbu	r4,461(sp)
 2002618:	380e923a 	slli	r7,r7,8
 200261c:	280a963a 	slli	r5,r5,24
 2002620:	da007183 	ldbu	r8,454(sp)
 2002624:	1004943a 	slli	r2,r2,16
 2002628:	300c923a 	slli	r6,r6,8
 200262c:	2008963a 	slli	r4,r4,24
 2002630:	da407283 	ldbu	r9,458(sp)
 2002634:	1806943a 	slli	r3,r3,16
 2002638:	1145883a 	add	r2,r2,r5
 200263c:	41d1883a 	add	r8,r8,r7
 2002640:	1907883a 	add	r3,r3,r4
 2002644:	4091883a 	add	r8,r8,r2
 2002648:	4993883a 	add	r9,r9,r6
 200264c:	d8807043 	ldbu	r2,449(sp)
 2002650:	48d3883a 	add	r9,r9,r3
 2002654:	d8c07143 	ldbu	r3,453(sp)
 2002658:	58800085 	stb	r2,2(r11)
 200265c:	d8806f83 	ldbu	r2,446(sp)
 2002660:	60c00085 	stb	r3,2(r12)
 2002664:	d8c06fc3 	ldbu	r3,447(sp)
 2002668:	d0a75305 	stb	r2,-25268(gp)
 200266c:	d8807003 	ldbu	r2,448(sp)
 2002670:	d0e78b05 	stb	r3,-25044(gp)
 2002674:	d8c07083 	ldbu	r3,450(sp)
 2002678:	58800045 	stb	r2,1(r11)
 200267c:	d88070c3 	ldbu	r2,451(sp)
 2002680:	d0e76105 	stb	r3,-25212(gp)
 2002684:	d8c07103 	ldbu	r3,452(sp)
 2002688:	d0a77905 	stb	r2,-25116(gp)
 200268c:	5005883a 	mov	r2,r10
 2002690:	60c00045 	stb	r3,1(r12)
 2002694:	d2278d15 	stw	r8,-25036(gp)
 2002698:	d2677815 	stw	r9,-25120(gp)
 200269c:	dfc08017 	ldw	ra,512(sp)
 20026a0:	dec08104 	addi	sp,sp,516
 20026a4:	f800283a 	ret

020026a8 <double_speed>:
 20026a8:	d1275543 	ldbu	r4,-25259(gp)
 20026ac:	d1677f17 	ldw	r5,-25092(gp)
 20026b0:	defffa04 	addi	sp,sp,-24
 20026b4:	dfc00515 	stw	ra,20(sp)
 20026b8:	dd000415 	stw	r20,16(sp)
 20026bc:	dcc00315 	stw	r19,12(sp)
 20026c0:	dc800215 	stw	r18,8(sp)
 20026c4:	dc400115 	stw	r17,4(sp)
 20026c8:	dc000015 	stw	r16,0(sp)
 20026cc:	20040f00 	call	20040f0 <__mulsi3>
 20026d0:	0080220e 	bge	zero,r2,200275c <double_speed+0xb4>
 20026d4:	05000044 	movi	r20,1
 20026d8:	044080b4 	movhi	r17,514
 20026dc:	8c6894c4 	addi	r17,r17,-23981
 20026e0:	04003c04 	movi	r16,240
 20026e4:	04c03804 	movi	r19,224
 20026e8:	04808004 	movi	r18,512
 20026ec:	014080b4 	movhi	r5,514
 20026f0:	296894c4 	addi	r5,r5,-23981
 20026f4:	010080b4 	movhi	r4,514
 20026f8:	21288b04 	addi	r4,r4,-24020
 20026fc:	01808074 	movhi	r6,513
 2002700:	3194fe04 	addi	r6,r6,21496
 2002704:	a00f883a 	mov	r7,r20
 2002708:	20014b40 	call	20014b4 <get_rel_sector>
 200270c:	01400044 	movi	r5,1
 2002710:	80800037 	ldwio	r2,0(r16)
 2002714:	2c49883a 	add	r4,r5,r17
 2002718:	103ffd1e 	bne	r2,zero,2002710 <double_speed+0x68>
 200271c:	d0a78a17 	ldw	r2,-25048(gp)
 2002720:	20c00043 	ldbu	r3,1(r4)
 2002724:	21000003 	ldbu	r4,0(r4)
 2002728:	10001f1e 	bne	r2,zero,20027a8 <double_speed+0x100>
 200272c:	20803fcc 	andi	r2,r4,255
 2002730:	1004923a 	slli	r2,r2,8
 2002734:	18c03fcc 	andi	r3,r3,255
 2002738:	10c4b03a 	or	r2,r2,r3
 200273c:	98800035 	stwio	r2,0(r19)
 2002740:	29400104 	addi	r5,r5,4
 2002744:	917ff20e 	bge	r18,r5,2002710 <double_speed+0x68>
 2002748:	d1275543 	ldbu	r4,-25259(gp)
 200274c:	d1677f17 	ldw	r5,-25092(gp)
 2002750:	a5000044 	addi	r20,r20,1
 2002754:	20040f00 	call	20040f0 <__mulsi3>
 2002758:	153fe40e 	bge	r2,r20,20026ec <double_speed+0x44>
 200275c:	00803fc4 	movi	r2,255
 2002760:	01001304 	movi	r4,76
 2002764:	d0a75e15 	stw	r2,-25224(gp)
 2002768:	20000035 	stwio	zero,0(r4)
 200276c:	00c01204 	movi	r3,72
 2002770:	18800035 	stwio	r2,0(r3)
 2002774:	20000035 	stwio	zero,0(r4)
 2002778:	01000044 	movi	r4,1
 200277c:	000b883a 	mov	r5,zero
 2002780:	01808034 	movhi	r6,512
 2002784:	31822704 	addi	r6,r6,2204
 2002788:	dfc00517 	ldw	ra,20(sp)
 200278c:	dd000417 	ldw	r20,16(sp)
 2002790:	dcc00317 	ldw	r19,12(sp)
 2002794:	dc800217 	ldw	r18,8(sp)
 2002798:	dc400117 	ldw	r17,4(sp)
 200279c:	dc000017 	ldw	r16,0(sp)
 20027a0:	dec00604 	addi	sp,sp,24
 20027a4:	200d4701 	jmpi	200d470 <alt_irq_register>
 20027a8:	00803fc4 	movi	r2,255
 20027ac:	01001304 	movi	r4,76
 20027b0:	d0a75e15 	stw	r2,-25224(gp)
 20027b4:	20000035 	stwio	zero,0(r4)
 20027b8:	00c01204 	movi	r3,72
 20027bc:	18800035 	stwio	r2,0(r3)
 20027c0:	20000035 	stwio	zero,0(r4)
 20027c4:	01000044 	movi	r4,1
 20027c8:	000b883a 	mov	r5,zero
 20027cc:	01808034 	movhi	r6,512
 20027d0:	31822704 	addi	r6,r6,2204
 20027d4:	200d4700 	call	200d470 <alt_irq_register>
 20027d8:	d0278a15 	stw	zero,-25048(gp)
 20027dc:	dfc00517 	ldw	ra,20(sp)
 20027e0:	dd000417 	ldw	r20,16(sp)
 20027e4:	dcc00317 	ldw	r19,12(sp)
 20027e8:	dc800217 	ldw	r18,8(sp)
 20027ec:	dc400117 	ldw	r17,4(sp)
 20027f0:	dc000017 	ldw	r16,0(sp)
 20027f4:	dec00604 	addi	sp,sp,24
 20027f8:	f800283a 	ret

020027fc <half_speed>:
 20027fc:	d1275543 	ldbu	r4,-25259(gp)
 2002800:	d1677f17 	ldw	r5,-25092(gp)
 2002804:	defffe04 	addi	sp,sp,-8
 2002808:	dfc00115 	stw	ra,4(sp)
 200280c:	dc000015 	stw	r16,0(sp)
 2002810:	20040f00 	call	20040f0 <__mulsi3>
 2002814:	0080250e 	bge	zero,r2,20028ac <half_speed+0xb0>
 2002818:	04000044 	movi	r16,1
 200281c:	01808074 	movhi	r6,513
 2002820:	3194fe04 	addi	r6,r6,21496
 2002824:	010080b4 	movhi	r4,514
 2002828:	21288b04 	addi	r4,r4,-24020
 200282c:	014080b4 	movhi	r5,514
 2002830:	296894c4 	addi	r5,r5,-23981
 2002834:	800f883a 	mov	r7,r16
 2002838:	20014b40 	call	20014b4 <get_rel_sector>
 200283c:	018080b4 	movhi	r6,514
 2002840:	31a89504 	addi	r6,r6,-23980
 2002844:	000b883a 	mov	r5,zero
 2002848:	00803c04 	movi	r2,240
 200284c:	10c00037 	ldwio	r3,0(r2)
 2002850:	183ffd1e 	bne	r3,zero,2002848 <half_speed+0x4c>
 2002854:	d0a78a17 	ldw	r2,-25048(gp)
 2002858:	30c00003 	ldbu	r3,0(r6)
 200285c:	31000043 	ldbu	r4,1(r6)
 2002860:	1000211e 	bne	r2,zero,20028e8 <half_speed+0xec>
 2002864:	18c03fcc 	andi	r3,r3,255
 2002868:	1806923a 	slli	r3,r3,8
 200286c:	21003fcc 	andi	r4,r4,255
 2002870:	00803804 	movi	r2,224
 2002874:	1906b03a 	or	r3,r3,r4
 2002878:	10c00035 	stwio	r3,0(r2)
 200287c:	29400044 	addi	r5,r5,1
 2002880:	00800044 	movi	r2,1
 2002884:	117ff02e 	bgeu	r2,r5,2002848 <half_speed+0x4c>
 2002888:	31800084 	addi	r6,r6,2
 200288c:	008080b4 	movhi	r2,514
 2002890:	10a91504 	addi	r2,r2,-23468
 2002894:	30bfeb1e 	bne	r6,r2,2002844 <half_speed+0x48>
 2002898:	d1275543 	ldbu	r4,-25259(gp)
 200289c:	d1677f17 	ldw	r5,-25092(gp)
 20028a0:	84000044 	addi	r16,r16,1
 20028a4:	20040f00 	call	20040f0 <__mulsi3>
 20028a8:	143fdc0e 	bge	r2,r16,200281c <half_speed+0x20>
 20028ac:	00803fc4 	movi	r2,255
 20028b0:	01001304 	movi	r4,76
 20028b4:	d0a75e15 	stw	r2,-25224(gp)
 20028b8:	20000035 	stwio	zero,0(r4)
 20028bc:	00c01204 	movi	r3,72
 20028c0:	18800035 	stwio	r2,0(r3)
 20028c4:	20000035 	stwio	zero,0(r4)
 20028c8:	01000044 	movi	r4,1
 20028cc:	000b883a 	mov	r5,zero
 20028d0:	01808034 	movhi	r6,512
 20028d4:	31822704 	addi	r6,r6,2204
 20028d8:	dfc00117 	ldw	ra,4(sp)
 20028dc:	dc000017 	ldw	r16,0(sp)
 20028e0:	dec00204 	addi	sp,sp,8
 20028e4:	200d4701 	jmpi	200d470 <alt_irq_register>
 20028e8:	00803fc4 	movi	r2,255
 20028ec:	01001304 	movi	r4,76
 20028f0:	d0a75e15 	stw	r2,-25224(gp)
 20028f4:	20000035 	stwio	zero,0(r4)
 20028f8:	00c01204 	movi	r3,72
 20028fc:	18800035 	stwio	r2,0(r3)
 2002900:	20000035 	stwio	zero,0(r4)
 2002904:	01000044 	movi	r4,1
 2002908:	000b883a 	mov	r5,zero
 200290c:	01808034 	movhi	r6,512
 2002910:	31822704 	addi	r6,r6,2204
 2002914:	200d4700 	call	200d470 <alt_irq_register>
 2002918:	d0278a15 	stw	zero,-25048(gp)
 200291c:	dfc00117 	ldw	ra,4(sp)
 2002920:	dc000017 	ldw	r16,0(sp)
 2002924:	dec00204 	addi	sp,sp,8
 2002928:	f800283a 	ret

0200292c <normal_speed>:
 200292c:	d1275543 	ldbu	r4,-25259(gp)
 2002930:	d1677f17 	ldw	r5,-25092(gp)
 2002934:	defffa04 	addi	sp,sp,-24
 2002938:	dfc00515 	stw	ra,20(sp)
 200293c:	dd000415 	stw	r20,16(sp)
 2002940:	dcc00315 	stw	r19,12(sp)
 2002944:	dc800215 	stw	r18,8(sp)
 2002948:	dc400115 	stw	r17,4(sp)
 200294c:	dc000015 	stw	r16,0(sp)
 2002950:	20040f00 	call	20040f0 <__mulsi3>
 2002954:	0080220e 	bge	zero,r2,20029e0 <normal_speed+0xb4>
 2002958:	05000044 	movi	r20,1
 200295c:	044080b4 	movhi	r17,514
 2002960:	8c6894c4 	addi	r17,r17,-23981
 2002964:	04003c04 	movi	r16,240
 2002968:	04c03804 	movi	r19,224
 200296c:	04808004 	movi	r18,512
 2002970:	014080b4 	movhi	r5,514
 2002974:	296894c4 	addi	r5,r5,-23981
 2002978:	010080b4 	movhi	r4,514
 200297c:	21288b04 	addi	r4,r4,-24020
 2002980:	01808074 	movhi	r6,513
 2002984:	3194fe04 	addi	r6,r6,21496
 2002988:	a00f883a 	mov	r7,r20
 200298c:	20014b40 	call	20014b4 <get_rel_sector>
 2002990:	01400044 	movi	r5,1
 2002994:	80800037 	ldwio	r2,0(r16)
 2002998:	2c49883a 	add	r4,r5,r17
 200299c:	103ffd1e 	bne	r2,zero,2002994 <normal_speed+0x68>
 20029a0:	d0a78a17 	ldw	r2,-25048(gp)
 20029a4:	20c00043 	ldbu	r3,1(r4)
 20029a8:	21000003 	ldbu	r4,0(r4)
 20029ac:	10001f1e 	bne	r2,zero,2002a2c <normal_speed+0x100>
 20029b0:	20803fcc 	andi	r2,r4,255
 20029b4:	1004923a 	slli	r2,r2,8
 20029b8:	18c03fcc 	andi	r3,r3,255
 20029bc:	10c4b03a 	or	r2,r2,r3
 20029c0:	98800035 	stwio	r2,0(r19)
 20029c4:	29400084 	addi	r5,r5,2
 20029c8:	917ff20e 	bge	r18,r5,2002994 <normal_speed+0x68>
 20029cc:	d1275543 	ldbu	r4,-25259(gp)
 20029d0:	d1677f17 	ldw	r5,-25092(gp)
 20029d4:	a5000044 	addi	r20,r20,1
 20029d8:	20040f00 	call	20040f0 <__mulsi3>
 20029dc:	153fe40e 	bge	r2,r20,2002970 <normal_speed+0x44>
 20029e0:	00803fc4 	movi	r2,255
 20029e4:	01001304 	movi	r4,76
 20029e8:	d0a75e15 	stw	r2,-25224(gp)
 20029ec:	20000035 	stwio	zero,0(r4)
 20029f0:	00c01204 	movi	r3,72
 20029f4:	18800035 	stwio	r2,0(r3)
 20029f8:	20000035 	stwio	zero,0(r4)
 20029fc:	01000044 	movi	r4,1
 2002a00:	000b883a 	mov	r5,zero
 2002a04:	01808034 	movhi	r6,512
 2002a08:	31822704 	addi	r6,r6,2204
 2002a0c:	dfc00517 	ldw	ra,20(sp)
 2002a10:	dd000417 	ldw	r20,16(sp)
 2002a14:	dcc00317 	ldw	r19,12(sp)
 2002a18:	dc800217 	ldw	r18,8(sp)
 2002a1c:	dc400117 	ldw	r17,4(sp)
 2002a20:	dc000017 	ldw	r16,0(sp)
 2002a24:	dec00604 	addi	sp,sp,24
 2002a28:	200d4701 	jmpi	200d470 <alt_irq_register>
 2002a2c:	00803fc4 	movi	r2,255
 2002a30:	01001304 	movi	r4,76
 2002a34:	d0a75e15 	stw	r2,-25224(gp)
 2002a38:	20000035 	stwio	zero,0(r4)
 2002a3c:	00c01204 	movi	r3,72
 2002a40:	18800035 	stwio	r2,0(r3)
 2002a44:	20000035 	stwio	zero,0(r4)
 2002a48:	01000044 	movi	r4,1
 2002a4c:	000b883a 	mov	r5,zero
 2002a50:	01808034 	movhi	r6,512
 2002a54:	31822704 	addi	r6,r6,2204
 2002a58:	200d4700 	call	200d470 <alt_irq_register>
 2002a5c:	d0278a15 	stw	zero,-25048(gp)
 2002a60:	dfc00517 	ldw	ra,20(sp)
 2002a64:	dd000417 	ldw	r20,16(sp)
 2002a68:	dcc00317 	ldw	r19,12(sp)
 2002a6c:	dc800217 	ldw	r18,8(sp)
 2002a70:	dc400117 	ldw	r17,4(sp)
 2002a74:	dc000017 	ldw	r16,0(sp)
 2002a78:	dec00604 	addi	sp,sp,24
 2002a7c:	f800283a 	ret

02002a80 <delay>:
 2002a80:	defff904 	addi	sp,sp,-28
 2002a84:	dfc00615 	stw	ra,24(sp)
 2002a88:	dd400515 	stw	r21,20(sp)
 2002a8c:	dd000415 	stw	r20,16(sp)
 2002a90:	dcc00315 	stw	r19,12(sp)
 2002a94:	dc800215 	stw	r18,8(sp)
 2002a98:	dc400115 	stw	r17,4(sp)
 2002a9c:	dc000015 	stw	r16,0(sp)
 2002aa0:	008080b4 	movhi	r2,514
 2002aa4:	10a91504 	addi	r2,r2,-23468
 2002aa8:	00c080f4 	movhi	r3,515
 2002aac:	18ff3704 	addi	r3,r3,-804
 2002ab0:	10000005 	stb	zero,0(r2)
 2002ab4:	10800044 	addi	r2,r2,1
 2002ab8:	10fffd1e 	bne	r2,r3,2002ab0 <delay+0x30>
 2002abc:	d1275543 	ldbu	r4,-25259(gp)
 2002ac0:	d1677f17 	ldw	r5,-25092(gp)
 2002ac4:	20040f00 	call	20040f0 <__mulsi3>
 2002ac8:	0080810e 	bge	zero,r2,2002cd0 <delay+0x250>
 2002acc:	04400044 	movi	r17,1
 2002ad0:	882b883a 	mov	r21,r17
 2002ad4:	04003c04 	movi	r16,240
 2002ad8:	04803804 	movi	r18,224
 2002adc:	04c00074 	movhi	r19,1
 2002ae0:	9cd62204 	addi	r19,r19,22664
 2002ae4:	050080b4 	movhi	r20,514
 2002ae8:	a5291504 	addi	r20,r20,-23468
 2002aec:	01808074 	movhi	r6,513
 2002af0:	3194fe04 	addi	r6,r6,21496
 2002af4:	010080b4 	movhi	r4,514
 2002af8:	21288b04 	addi	r4,r4,-24020
 2002afc:	014080b4 	movhi	r5,514
 2002b00:	296894c4 	addi	r5,r5,-23981
 2002b04:	a80f883a 	mov	r7,r21
 2002b08:	20014b40 	call	20014b4 <get_rel_sector>
 2002b0c:	018080b4 	movhi	r6,514
 2002b10:	31a89504 	addi	r6,r6,-23980
 2002b14:	30800003 	ldbu	r2,0(r6)
 2002b18:	30c00043 	ldbu	r3,1(r6)
 2002b1c:	1004923a 	slli	r2,r2,8
 2002b20:	10c6b03a 	or	r3,r2,r3
 2002b24:	80800037 	ldwio	r2,0(r16)
 2002b28:	103ffe1e 	bne	r2,zero,2002b24 <delay+0xa4>
 2002b2c:	d0a78a17 	ldw	r2,-25048(gp)
 2002b30:	1000511e 	bne	r2,zero,2002c78 <delay+0x1f8>
 2002b34:	90c00035 	stwio	r3,0(r18)
 2002b38:	01c080b4 	movhi	r7,514
 2002b3c:	39e914c4 	addi	r7,r7,-23469
 2002b40:	8a400084 	addi	r9,r17,2
 2002b44:	49c5883a 	add	r2,r9,r7
 2002b48:	10c00003 	ldbu	r3,0(r2)
 2002b4c:	8a0000c4 	addi	r8,r17,3
 2002b50:	41c5883a 	add	r2,r8,r7
 2002b54:	1806923a 	slli	r3,r3,8
 2002b58:	11000003 	ldbu	r4,0(r2)
 2002b5c:	01403c04 	movi	r5,240
 2002b60:	1906b03a 	or	r3,r3,r4
 2002b64:	28800037 	ldwio	r2,0(r5)
 2002b68:	103ffe1e 	bne	r2,zero,2002b64 <delay+0xe4>
 2002b6c:	d0a78a17 	ldw	r2,-25048(gp)
 2002b70:	1000411e 	bne	r2,zero,2002c78 <delay+0x1f8>
 2002b74:	90c00035 	stwio	r3,0(r18)
 2002b78:	31000083 	ldbu	r4,2(r6)
 2002b7c:	314000c3 	ldbu	r5,3(r6)
 2002b80:	49c5883a 	add	r2,r9,r7
 2002b84:	11000005 	stb	r4,0(r2)
 2002b88:	41c7883a 	add	r3,r8,r7
 2002b8c:	8c400104 	addi	r17,r17,4
 2002b90:	19400005 	stb	r5,0(r3)
 2002b94:	9c40010e 	bge	r19,r17,2002b9c <delay+0x11c>
 2002b98:	04400044 	movi	r17,1
 2002b9c:	31800104 	addi	r6,r6,4
 2002ba0:	353fdc1e 	bne	r6,r20,2002b14 <delay+0x94>
 2002ba4:	d1275543 	ldbu	r4,-25259(gp)
 2002ba8:	d1677f17 	ldw	r5,-25092(gp)
 2002bac:	ad400044 	addi	r21,r21,1
 2002bb0:	20040f00 	call	20040f0 <__mulsi3>
 2002bb4:	157fcd0e 	bge	r2,r21,2002aec <delay+0x6c>
 2002bb8:	01800044 	movi	r6,1
 2002bbc:	01c03c04 	movi	r7,240
 2002bc0:	02003804 	movi	r8,224
 2002bc4:	024080b4 	movhi	r9,514
 2002bc8:	4a6914c4 	addi	r9,r9,-23469
 2002bcc:	38800037 	ldwio	r2,0(r7)
 2002bd0:	103ffe1e 	bne	r2,zero,2002bcc <delay+0x14c>
 2002bd4:	d0a78a17 	ldw	r2,-25048(gp)
 2002bd8:	1000271e 	bne	r2,zero,2002c78 <delay+0x1f8>
 2002bdc:	40000035 	stwio	zero,0(r8)
 2002be0:	8a45883a 	add	r2,r17,r9
 2002be4:	10c00083 	ldbu	r3,2(r2)
 2002be8:	110000c3 	ldbu	r4,3(r2)
 2002bec:	01403c04 	movi	r5,240
 2002bf0:	1806923a 	slli	r3,r3,8
 2002bf4:	1906b03a 	or	r3,r3,r4
 2002bf8:	28800037 	ldwio	r2,0(r5)
 2002bfc:	103ffe1e 	bne	r2,zero,2002bf8 <delay+0x178>
 2002c00:	d0a78a17 	ldw	r2,-25048(gp)
 2002c04:	10001c1e 	bne	r2,zero,2002c78 <delay+0x1f8>
 2002c08:	40c00035 	stwio	r3,0(r8)
 2002c0c:	8c400104 	addi	r17,r17,4
 2002c10:	00800074 	movhi	r2,1
 2002c14:	10962204 	addi	r2,r2,22664
 2002c18:	1440010e 	bge	r2,r17,2002c20 <delay+0x1a0>
 2002c1c:	04400044 	movi	r17,1
 2002c20:	31800104 	addi	r6,r6,4
 2002c24:	11bfe90e 	bge	r2,r6,2002bcc <delay+0x14c>
 2002c28:	00803fc4 	movi	r2,255
 2002c2c:	01001304 	movi	r4,76
 2002c30:	d0a75e15 	stw	r2,-25224(gp)
 2002c34:	20000035 	stwio	zero,0(r4)
 2002c38:	00c01204 	movi	r3,72
 2002c3c:	18800035 	stwio	r2,0(r3)
 2002c40:	20000035 	stwio	zero,0(r4)
 2002c44:	01000044 	movi	r4,1
 2002c48:	000b883a 	mov	r5,zero
 2002c4c:	01808034 	movhi	r6,512
 2002c50:	31822704 	addi	r6,r6,2204
 2002c54:	dfc00617 	ldw	ra,24(sp)
 2002c58:	dd400517 	ldw	r21,20(sp)
 2002c5c:	dd000417 	ldw	r20,16(sp)
 2002c60:	dcc00317 	ldw	r19,12(sp)
 2002c64:	dc800217 	ldw	r18,8(sp)
 2002c68:	dc400117 	ldw	r17,4(sp)
 2002c6c:	dc000017 	ldw	r16,0(sp)
 2002c70:	dec00704 	addi	sp,sp,28
 2002c74:	200d4701 	jmpi	200d470 <alt_irq_register>
 2002c78:	00803fc4 	movi	r2,255
 2002c7c:	01001304 	movi	r4,76
 2002c80:	d0a75e15 	stw	r2,-25224(gp)
 2002c84:	20000035 	stwio	zero,0(r4)
 2002c88:	00c01204 	movi	r3,72
 2002c8c:	18800035 	stwio	r2,0(r3)
 2002c90:	20000035 	stwio	zero,0(r4)
 2002c94:	01000044 	movi	r4,1
 2002c98:	000b883a 	mov	r5,zero
 2002c9c:	01808034 	movhi	r6,512
 2002ca0:	31822704 	addi	r6,r6,2204
 2002ca4:	200d4700 	call	200d470 <alt_irq_register>
 2002ca8:	d0278a15 	stw	zero,-25048(gp)
 2002cac:	dfc00617 	ldw	ra,24(sp)
 2002cb0:	dd400517 	ldw	r21,20(sp)
 2002cb4:	dd000417 	ldw	r20,16(sp)
 2002cb8:	dcc00317 	ldw	r19,12(sp)
 2002cbc:	dc800217 	ldw	r18,8(sp)
 2002cc0:	dc400117 	ldw	r17,4(sp)
 2002cc4:	dc000017 	ldw	r16,0(sp)
 2002cc8:	dec00704 	addi	sp,sp,28
 2002ccc:	f800283a 	ret
 2002cd0:	04400044 	movi	r17,1
 2002cd4:	003fb806 	br	2002bb8 <delay+0x138>

02002cd8 <reverse>:
 2002cd8:	d1275543 	ldbu	r4,-25259(gp)
 2002cdc:	d1677f17 	ldw	r5,-25092(gp)
 2002ce0:	defffa04 	addi	sp,sp,-24
 2002ce4:	dc800215 	stw	r18,8(sp)
 2002ce8:	dfc00515 	stw	ra,20(sp)
 2002cec:	dd000415 	stw	r20,16(sp)
 2002cf0:	dcc00315 	stw	r19,12(sp)
 2002cf4:	dc400115 	stw	r17,4(sp)
 2002cf8:	dc000015 	stw	r16,0(sp)
 2002cfc:	20040f00 	call	20040f0 <__mulsi3>
 2002d00:	1025883a 	mov	r18,r2
 2002d04:	10001e16 	blt	r2,zero,2002d80 <reverse+0xa8>
 2002d08:	044080b4 	movhi	r17,514
 2002d0c:	8c6894c4 	addi	r17,r17,-23981
 2002d10:	04003c04 	movi	r16,240
 2002d14:	04c03804 	movi	r19,224
 2002d18:	053fffc4 	movi	r20,-1
 2002d1c:	014080b4 	movhi	r5,514
 2002d20:	296894c4 	addi	r5,r5,-23981
 2002d24:	010080b4 	movhi	r4,514
 2002d28:	21288b04 	addi	r4,r4,-24020
 2002d2c:	01808074 	movhi	r6,513
 2002d30:	3194fe04 	addi	r6,r6,21496
 2002d34:	900f883a 	mov	r7,r18
 2002d38:	20014b40 	call	20014b4 <get_rel_sector>
 2002d3c:	01407fc4 	movi	r5,511
 2002d40:	80800037 	ldwio	r2,0(r16)
 2002d44:	2c49883a 	add	r4,r5,r17
 2002d48:	103ffd1e 	bne	r2,zero,2002d40 <reverse+0x68>
 2002d4c:	d0a78a17 	ldw	r2,-25048(gp)
 2002d50:	20c00043 	ldbu	r3,1(r4)
 2002d54:	21000003 	ldbu	r4,0(r4)
 2002d58:	10001c1e 	bne	r2,zero,2002dcc <reverse+0xf4>
 2002d5c:	20803fcc 	andi	r2,r4,255
 2002d60:	1004923a 	slli	r2,r2,8
 2002d64:	18c03fcc 	andi	r3,r3,255
 2002d68:	10c4b03a 	or	r2,r2,r3
 2002d6c:	98800035 	stwio	r2,0(r19)
 2002d70:	297fff84 	addi	r5,r5,-2
 2002d74:	017ff216 	blt	zero,r5,2002d40 <reverse+0x68>
 2002d78:	94bfffc4 	addi	r18,r18,-1
 2002d7c:	953fe71e 	bne	r18,r20,2002d1c <reverse+0x44>
 2002d80:	00803fc4 	movi	r2,255
 2002d84:	01001304 	movi	r4,76
 2002d88:	d0a75e15 	stw	r2,-25224(gp)
 2002d8c:	20000035 	stwio	zero,0(r4)
 2002d90:	00c01204 	movi	r3,72
 2002d94:	18800035 	stwio	r2,0(r3)
 2002d98:	20000035 	stwio	zero,0(r4)
 2002d9c:	01000044 	movi	r4,1
 2002da0:	000b883a 	mov	r5,zero
 2002da4:	01808034 	movhi	r6,512
 2002da8:	31822704 	addi	r6,r6,2204
 2002dac:	dfc00517 	ldw	ra,20(sp)
 2002db0:	dd000417 	ldw	r20,16(sp)
 2002db4:	dcc00317 	ldw	r19,12(sp)
 2002db8:	dc800217 	ldw	r18,8(sp)
 2002dbc:	dc400117 	ldw	r17,4(sp)
 2002dc0:	dc000017 	ldw	r16,0(sp)
 2002dc4:	dec00604 	addi	sp,sp,24
 2002dc8:	200d4701 	jmpi	200d470 <alt_irq_register>
 2002dcc:	00803fc4 	movi	r2,255
 2002dd0:	01001304 	movi	r4,76
 2002dd4:	d0a75e15 	stw	r2,-25224(gp)
 2002dd8:	20000035 	stwio	zero,0(r4)
 2002ddc:	00c01204 	movi	r3,72
 2002de0:	18800035 	stwio	r2,0(r3)
 2002de4:	20000035 	stwio	zero,0(r4)
 2002de8:	01000044 	movi	r4,1
 2002dec:	000b883a 	mov	r5,zero
 2002df0:	01808034 	movhi	r6,512
 2002df4:	31822704 	addi	r6,r6,2204
 2002df8:	200d4700 	call	200d470 <alt_irq_register>
 2002dfc:	d0278a15 	stw	zero,-25048(gp)
 2002e00:	dfc00517 	ldw	ra,20(sp)
 2002e04:	dd000417 	ldw	r20,16(sp)
 2002e08:	dcc00317 	ldw	r19,12(sp)
 2002e0c:	dc800217 	ldw	r18,8(sp)
 2002e10:	dc400117 	ldw	r17,4(sp)
 2002e14:	dc000017 	ldw	r16,0(sp)
 2002e18:	dec00604 	addi	sp,sp,24
 2002e1c:	f800283a 	ret

02002e20 <main>:
 2002e20:	deff7c04 	addi	sp,sp,-528
 2002e24:	dfc08315 	stw	ra,524(sp)
 2002e28:	dc808215 	stw	r18,520(sp)
 2002e2c:	dc408115 	stw	r17,516(sp)
 2002e30:	dc008015 	stw	r16,512(sp)
 2002e34:	2000de40 	call	2000de4 <SD_card_init>
 2002e38:	10803fcc 	andi	r2,r2,255
 2002e3c:	1000861e 	bne	r2,zero,2003058 <main+0x238>
 2002e40:	01408074 	movhi	r5,513
 2002e44:	2944a904 	addi	r5,r5,4772
 2002e48:	01008074 	movhi	r4,513
 2002e4c:	2104ae04 	addi	r4,r4,4792
 2002e50:	20047540 	call	2004754 <printf>
 2002e54:	01808004 	movi	r6,512
 2002e58:	d809883a 	mov	r4,sp
 2002e5c:	000b883a 	mov	r5,zero
 2002e60:	20046bc0 	call	20046bc <memset>
 2002e64:	d809883a 	mov	r4,sp
 2002e68:	000b883a 	mov	r5,zero
 2002e6c:	01800044 	movi	r6,1
 2002e70:	20012580 	call	2001258 <SD_read_lba>
 2002e74:	d8c07f83 	ldbu	r3,510(sp)
 2002e78:	00801544 	movi	r2,85
 2002e7c:	18807926 	beq	r3,r2,2003064 <main+0x244>
 2002e80:	01808074 	movhi	r6,513
 2002e84:	3184ac04 	addi	r6,r6,4784
 2002e88:	300b883a 	mov	r5,r6
 2002e8c:	01008074 	movhi	r4,513
 2002e90:	2104b304 	addi	r4,r4,4812
 2002e94:	20047540 	call	2004754 <printf>
 2002e98:	20020780 	call	2002078 <init_bs>
 2002e9c:	10803fcc 	andi	r2,r2,255
 2002ea0:	10006a1e 	bne	r2,zero,200304c <main+0x22c>
 2002ea4:	01408074 	movhi	r5,513
 2002ea8:	2944a904 	addi	r5,r5,4772
 2002eac:	01008074 	movhi	r4,513
 2002eb0:	2104b704 	addi	r4,r4,4828
 2002eb4:	20047540 	call	2004754 <printf>
 2002eb8:	200311c0 	call	200311c <init_audio_codec>
 2002ebc:	20002040 	call	2000204 <LCD_Init>
 2002ec0:	2001f040 	call	2001f04 <nextsong>
 2002ec4:	00c03fc4 	movi	r3,255
 2002ec8:	04401304 	movi	r17,76
 2002ecc:	d0e75e15 	stw	r3,-25224(gp)
 2002ed0:	d0278a15 	stw	zero,-25048(gp)
 2002ed4:	88000035 	stwio	zero,0(r17)
 2002ed8:	00801204 	movi	r2,72
 2002edc:	10c00035 	stwio	r3,0(r2)
 2002ee0:	88000035 	stwio	zero,0(r17)
 2002ee4:	04000044 	movi	r16,1
 2002ee8:	8009883a 	mov	r4,r16
 2002eec:	000b883a 	mov	r5,zero
 2002ef0:	01808034 	movhi	r6,512
 2002ef4:	31822704 	addi	r6,r6,2204
 2002ef8:	200d4700 	call	200d470 <alt_irq_register>
 2002efc:	d4278015 	stw	r16,-25088(gp)
 2002f00:	d4276f15 	stw	r16,-25156(gp)
 2002f04:	d4277715 	stw	r16,-25124(gp)
 2002f08:	00bfffc4 	movi	r2,-1
 2002f0c:	d0a78715 	stw	r2,-25060(gp)
 2002f10:	8825883a 	mov	r18,r17
 2002f14:	d0a77a15 	stw	r2,-25112(gp)
 2002f18:	8023883a 	mov	r17,r16
 2002f1c:	d0a78017 	ldw	r2,-25088(gp)
 2002f20:	10001226 	beq	r2,zero,2002f6c <main+0x14c>
 2002f24:	d0a76f17 	ldw	r2,-25156(gp)
 2002f28:	10002926 	beq	r2,zero,2002fd0 <main+0x1b0>
 2002f2c:	d0a77717 	ldw	r2,-25124(gp)
 2002f30:	10003026 	beq	r2,zero,2002ff4 <main+0x1d4>
 2002f34:	00803404 	movi	r2,208
 2002f38:	10c00037 	ldwio	r3,0(r2)
 2002f3c:	d0e77a15 	stw	r3,-25112(gp)
 2002f40:	d1278717 	ldw	r4,-25060(gp)
 2002f44:	d0a77a17 	ldw	r2,-25112(gp)
 2002f48:	20bff426 	beq	r4,r2,2002f1c <main+0xfc>
 2002f4c:	d1677a17 	ldw	r5,-25112(gp)
 2002f50:	010080b4 	movhi	r4,514
 2002f54:	21288b04 	addi	r4,r4,-24020
 2002f58:	20005040 	call	2000504 <LCD_Display>
 2002f5c:	d0a77a17 	ldw	r2,-25112(gp)
 2002f60:	d0a78715 	stw	r2,-25060(gp)
 2002f64:	d0a78017 	ldw	r2,-25088(gp)
 2002f68:	103fee1e 	bne	r2,zero,2002f24 <main+0x104>
 2002f6c:	01008074 	movhi	r4,513
 2002f70:	2104bb04 	addi	r4,r4,4844
 2002f74:	200486c0 	call	200486c <puts>
 2002f78:	04000044 	movi	r16,1
 2002f7c:	d4275e15 	stw	r16,-25224(gp)
 2002f80:	90000035 	stwio	zero,0(r18)
 2002f84:	00801204 	movi	r2,72
 2002f88:	14000035 	stwio	r16,0(r2)
 2002f8c:	90000035 	stwio	zero,0(r18)
 2002f90:	8009883a 	mov	r4,r16
 2002f94:	000b883a 	mov	r5,zero
 2002f98:	01808034 	movhi	r6,512
 2002f9c:	31822704 	addi	r6,r6,2204
 2002fa0:	200d4700 	call	200d470 <alt_irq_register>
 2002fa4:	d0e77a17 	ldw	r3,-25112(gp)
 2002fa8:	00800084 	movi	r2,2
 2002fac:	18802126 	beq	r3,r2,2003034 <main+0x214>
 2002fb0:	10c01916 	blt	r2,r3,2003018 <main+0x1f8>
 2002fb4:	1c000326 	beq	r3,r16,2002fc4 <main+0x1a4>
 2002fb8:	200292c0 	call	200292c <normal_speed>
 2002fbc:	d4678015 	stw	r17,-25088(gp)
 2002fc0:	003fdc06 	br	2002f34 <main+0x114>
 2002fc4:	20026a80 	call	20026a8 <double_speed>
 2002fc8:	d4678015 	stw	r17,-25088(gp)
 2002fcc:	003fd906 	br	2002f34 <main+0x114>
 2002fd0:	01008074 	movhi	r4,513
 2002fd4:	2104bd04 	addi	r4,r4,4852
 2002fd8:	200486c0 	call	200486c <puts>
 2002fdc:	2001f040 	call	2001f04 <nextsong>
 2002fe0:	01000234 	movhi	r4,8
 2002fe4:	21284804 	addi	r4,r4,-24288
 2002fe8:	200dcf80 	call	200dcf8 <usleep>
 2002fec:	d4676f15 	stw	r17,-25156(gp)
 2002ff0:	003fd006 	br	2002f34 <main+0x114>
 2002ff4:	01008074 	movhi	r4,513
 2002ff8:	2104bf04 	addi	r4,r4,4860
 2002ffc:	200486c0 	call	200486c <puts>
 2003000:	2001d840 	call	2001d84 <prevsong>
 2003004:	01000234 	movhi	r4,8
 2003008:	21284804 	addi	r4,r4,-24288
 200300c:	200dcf80 	call	200dcf8 <usleep>
 2003010:	d4677715 	stw	r17,-25124(gp)
 2003014:	003fc706 	br	2002f34 <main+0x114>
 2003018:	008000c4 	movi	r2,3
 200301c:	18800826 	beq	r3,r2,2003040 <main+0x220>
 2003020:	00800104 	movi	r2,4
 2003024:	18bfe41e 	bne	r3,r2,2002fb8 <main+0x198>
 2003028:	2002cd80 	call	2002cd8 <reverse>
 200302c:	d4678015 	stw	r17,-25088(gp)
 2003030:	003fc006 	br	2002f34 <main+0x114>
 2003034:	20027fc0 	call	20027fc <half_speed>
 2003038:	d4678015 	stw	r17,-25088(gp)
 200303c:	003fbd06 	br	2002f34 <main+0x114>
 2003040:	2002a800 	call	2002a80 <delay>
 2003044:	d4678015 	stw	r17,-25088(gp)
 2003048:	003fba06 	br	2002f34 <main+0x114>
 200304c:	01408074 	movhi	r5,513
 2003050:	2944ac04 	addi	r5,r5,4784
 2003054:	003f9506 	br	2002eac <main+0x8c>
 2003058:	01408074 	movhi	r5,513
 200305c:	2944ac04 	addi	r5,r5,4784
 2003060:	003f7906 	br	2002e48 <main+0x28>
 2003064:	d8c07fc3 	ldbu	r3,511(sp)
 2003068:	00802a84 	movi	r2,170
 200306c:	18bf841e 	bne	r3,r2,2002e80 <main+0x60>
 2003070:	d9c071c3 	ldbu	r7,455(sp)
 2003074:	d8c07203 	ldbu	r3,456(sp)
 2003078:	d9007243 	ldbu	r4,457(sp)
 200307c:	d94072c3 	ldbu	r5,459(sp)
 2003080:	d8807303 	ldbu	r2,460(sp)
 2003084:	d9807343 	ldbu	r6,461(sp)
 2003088:	2008963a 	slli	r4,r4,24
 200308c:	280a923a 	slli	r5,r5,8
 2003090:	300c963a 	slli	r6,r6,24
 2003094:	380e923a 	slli	r7,r7,8
 2003098:	1806943a 	slli	r3,r3,16
 200309c:	1004943a 	slli	r2,r2,16
 20030a0:	da007183 	ldbu	r8,454(sp)
 20030a4:	da407283 	ldbu	r9,458(sp)
 20030a8:	1907883a 	add	r3,r3,r4
 20030ac:	1185883a 	add	r2,r2,r6
 20030b0:	4953883a 	add	r9,r9,r5
 20030b4:	41d1883a 	add	r8,r8,r7
 20030b8:	40d1883a 	add	r8,r8,r3
 20030bc:	4893883a 	add	r9,r9,r2
 20030c0:	d8c07143 	ldbu	r3,453(sp)
 20030c4:	d8807043 	ldbu	r2,449(sp)
 20030c8:	d1278b04 	addi	r4,gp,-25044
 20030cc:	d1677904 	addi	r5,gp,-25116
 20030d0:	20800085 	stb	r2,2(r4)
 20030d4:	28c00085 	stb	r3,2(r5)
 20030d8:	d8806f83 	ldbu	r2,446(sp)
 20030dc:	d8c06fc3 	ldbu	r3,447(sp)
 20030e0:	01808074 	movhi	r6,513
 20030e4:	3184a904 	addi	r6,r6,4772
 20030e8:	d0a75305 	stb	r2,-25268(gp)
 20030ec:	d0e78b05 	stb	r3,-25044(gp)
 20030f0:	d8807003 	ldbu	r2,448(sp)
 20030f4:	d8c07083 	ldbu	r3,450(sp)
 20030f8:	d2278d15 	stw	r8,-25036(gp)
 20030fc:	20800045 	stb	r2,1(r4)
 2003100:	d0e76105 	stb	r3,-25212(gp)
 2003104:	d88070c3 	ldbu	r2,451(sp)
 2003108:	d8c07103 	ldbu	r3,452(sp)
 200310c:	d2677815 	stw	r9,-25120(gp)
 2003110:	d0a77905 	stb	r2,-25116(gp)
 2003114:	28c00045 	stb	r3,1(r5)
 2003118:	003f5b06 	br	2002e88 <main+0x68>

0200311c <init_audio_codec>:
 200311c:	deffff04 	addi	sp,sp,-4
 2003120:	010018c4 	movi	r4,99
 2003124:	dfc00015 	stw	ra,0(sp)
 2003128:	20008080 	call	2000808 <I2C_Init>
 200312c:	01400044 	movi	r5,1
 2003130:	01000d04 	movi	r4,52
 2003134:	000d883a 	mov	r6,zero
 2003138:	20007ac0 	call	20007ac <I2C_Send>
 200313c:	10803fcc 	andi	r2,r2,255
 2003140:	01008074 	movhi	r4,513
 2003144:	2104c104 	addi	r4,r4,4868
 2003148:	10004726 	beq	r2,zero,2003268 <init_audio_codec+0x14c>
 200314c:	200486c0 	call	200486c <puts>
 2003150:	000b883a 	mov	r5,zero
 2003154:	01000204 	movi	r4,8
 2003158:	000d883a 	mov	r6,zero
 200315c:	20007ac0 	call	20007ac <I2C_Send>
 2003160:	01000484 	movi	r4,18
 2003164:	000b883a 	mov	r5,zero
 2003168:	01800044 	movi	r6,1
 200316c:	20007ac0 	call	20007ac <I2C_Send>
 2003170:	01000d04 	movi	r4,52
 2003174:	01400044 	movi	r5,1
 2003178:	000d883a 	mov	r6,zero
 200317c:	20007ac0 	call	20007ac <I2C_Send>
 2003180:	01000284 	movi	r4,10
 2003184:	000b883a 	mov	r5,zero
 2003188:	000d883a 	mov	r6,zero
 200318c:	20007ac0 	call	20007ac <I2C_Send>
 2003190:	0009883a 	mov	r4,zero
 2003194:	000b883a 	mov	r5,zero
 2003198:	01800044 	movi	r6,1
 200319c:	20007ac0 	call	20007ac <I2C_Send>
 20031a0:	01000d04 	movi	r4,52
 20031a4:	01400044 	movi	r5,1
 20031a8:	000d883a 	mov	r6,zero
 20031ac:	20007ac0 	call	20007ac <I2C_Send>
 20031b0:	01000304 	movi	r4,12
 20031b4:	000b883a 	mov	r5,zero
 20031b8:	000d883a 	mov	r6,zero
 20031bc:	20007ac0 	call	20007ac <I2C_Send>
 20031c0:	0009883a 	mov	r4,zero
 20031c4:	000b883a 	mov	r5,zero
 20031c8:	01800044 	movi	r6,1
 20031cc:	20007ac0 	call	20007ac <I2C_Send>
 20031d0:	01000d04 	movi	r4,52
 20031d4:	01400044 	movi	r5,1
 20031d8:	000d883a 	mov	r6,zero
 20031dc:	20007ac0 	call	20007ac <I2C_Send>
 20031e0:	01000384 	movi	r4,14
 20031e4:	000b883a 	mov	r5,zero
 20031e8:	000d883a 	mov	r6,zero
 20031ec:	20007ac0 	call	20007ac <I2C_Send>
 20031f0:	01000404 	movi	r4,16
 20031f4:	000b883a 	mov	r5,zero
 20031f8:	01800044 	movi	r6,1
 20031fc:	20007ac0 	call	20007ac <I2C_Send>
 2003200:	01000d04 	movi	r4,52
 2003204:	01400044 	movi	r5,1
 2003208:	000d883a 	mov	r6,zero
 200320c:	20007ac0 	call	20007ac <I2C_Send>
 2003210:	01000404 	movi	r4,16
 2003214:	000b883a 	mov	r5,zero
 2003218:	000d883a 	mov	r6,zero
 200321c:	20007ac0 	call	20007ac <I2C_Send>
 2003220:	01000884 	movi	r4,34
 2003224:	000b883a 	mov	r5,zero
 2003228:	01800044 	movi	r6,1
 200322c:	20007ac0 	call	20007ac <I2C_Send>
 2003230:	01000d04 	movi	r4,52
 2003234:	01400044 	movi	r5,1
 2003238:	000d883a 	mov	r6,zero
 200323c:	20007ac0 	call	20007ac <I2C_Send>
 2003240:	01000484 	movi	r4,18
 2003244:	000b883a 	mov	r5,zero
 2003248:	000d883a 	mov	r6,zero
 200324c:	20007ac0 	call	20007ac <I2C_Send>
 2003250:	01000044 	movi	r4,1
 2003254:	000b883a 	mov	r5,zero
 2003258:	200d883a 	mov	r6,r4
 200325c:	dfc00017 	ldw	ra,0(sp)
 2003260:	dec00104 	addi	sp,sp,4
 2003264:	20007ac1 	jmpi	20007ac <I2C_Send>
 2003268:	01008074 	movhi	r4,513
 200326c:	2104cd04 	addi	r4,r4,4916
 2003270:	dfc00017 	ldw	ra,0(sp)
 2003274:	dec00104 	addi	sp,sp,4
 2003278:	200486c1 	jmpi	200486c <puts>

0200327c <ceil>:
 200327c:	2805d53a 	srai	r2,r5,20
 2003280:	defff604 	addi	sp,sp,-40
 2003284:	dd800615 	stw	r22,24(sp)
 2003288:	10c1ffcc 	andi	r3,r2,2047
 200328c:	1dbf0044 	addi	r22,r3,-1023
 2003290:	008004c4 	movi	r2,19
 2003294:	ddc00715 	stw	r23,28(sp)
 2003298:	dc800215 	stw	r18,8(sp)
 200329c:	dc400115 	stw	r17,4(sp)
 20032a0:	dc000015 	stw	r16,0(sp)
 20032a4:	dfc00915 	stw	ra,36(sp)
 20032a8:	df000815 	stw	fp,32(sp)
 20032ac:	dd400515 	stw	r21,20(sp)
 20032b0:	dd000415 	stw	r20,16(sp)
 20032b4:	dcc00315 	stw	r19,12(sp)
 20032b8:	2021883a 	mov	r16,r4
 20032bc:	2823883a 	mov	r17,r5
 20032c0:	282f883a 	mov	r23,r5
 20032c4:	2025883a 	mov	r18,r4
 20032c8:	15802c16 	blt	r2,r22,200337c <ceil+0x100>
 20032cc:	b0005416 	blt	r22,zero,2003420 <ceil+0x1a4>
 20032d0:	00800434 	movhi	r2,16
 20032d4:	10bfffc4 	addi	r2,r2,-1
 20032d8:	15b9d83a 	sra	fp,r2,r22
 20032dc:	282f883a 	mov	r23,r5
 20032e0:	e144703a 	and	r2,fp,r5
 20032e4:	1104b03a 	or	r2,r2,r4
 20032e8:	10001626 	beq	r2,zero,2003344 <ceil+0xc8>
 20032ec:	00a20034 	movhi	r2,34816
 20032f0:	109d6704 	addi	r2,r2,30108
 20032f4:	00df8e34 	movhi	r3,32312
 20032f8:	18f90f04 	addi	r3,r3,-7108
 20032fc:	180f883a 	mov	r7,r3
 2003300:	100d883a 	mov	r6,r2
 2003304:	2003b440 	call	2003b44 <__adddf3>
 2003308:	180b883a 	mov	r5,r3
 200330c:	000d883a 	mov	r6,zero
 2003310:	000f883a 	mov	r7,zero
 2003314:	1009883a 	mov	r4,r2
 2003318:	2003bb80 	call	2003bb8 <__gtdf2>
 200331c:	0080070e 	bge	zero,r2,200333c <ceil+0xc0>
 2003320:	0440030e 	bge	zero,r17,2003330 <ceil+0xb4>
 2003324:	00800434 	movhi	r2,16
 2003328:	1585d83a 	sra	r2,r2,r22
 200332c:	88af883a 	add	r23,r17,r2
 2003330:	0704303a 	nor	r2,zero,fp
 2003334:	b8ae703a 	and	r23,r23,r2
 2003338:	0025883a 	mov	r18,zero
 200333c:	9021883a 	mov	r16,r18
 2003340:	b823883a 	mov	r17,r23
 2003344:	8005883a 	mov	r2,r16
 2003348:	8807883a 	mov	r3,r17
 200334c:	dfc00917 	ldw	ra,36(sp)
 2003350:	df000817 	ldw	fp,32(sp)
 2003354:	ddc00717 	ldw	r23,28(sp)
 2003358:	dd800617 	ldw	r22,24(sp)
 200335c:	dd400517 	ldw	r21,20(sp)
 2003360:	dd000417 	ldw	r20,16(sp)
 2003364:	dcc00317 	ldw	r19,12(sp)
 2003368:	dc800217 	ldw	r18,8(sp)
 200336c:	dc400117 	ldw	r17,4(sp)
 2003370:	dc000017 	ldw	r16,0(sp)
 2003374:	dec00a04 	addi	sp,sp,40
 2003378:	f800283a 	ret
 200337c:	00800cc4 	movi	r2,51
 2003380:	15801f16 	blt	r2,r22,2003400 <ceil+0x184>
 2003384:	18befb44 	addi	r2,r3,-1043
 2003388:	00ffffc4 	movi	r3,-1
 200338c:	18b8d83a 	srl	fp,r3,r2
 2003390:	e104703a 	and	r2,fp,r4
 2003394:	103feb26 	beq	r2,zero,2003344 <ceil+0xc8>
 2003398:	00a20034 	movhi	r2,34816
 200339c:	109d6704 	addi	r2,r2,30108
 20033a0:	00df8e34 	movhi	r3,32312
 20033a4:	18f90f04 	addi	r3,r3,-7108
 20033a8:	180f883a 	mov	r7,r3
 20033ac:	100d883a 	mov	r6,r2
 20033b0:	2003b440 	call	2003b44 <__adddf3>
 20033b4:	180b883a 	mov	r5,r3
 20033b8:	000d883a 	mov	r6,zero
 20033bc:	000f883a 	mov	r7,zero
 20033c0:	1009883a 	mov	r4,r2
 20033c4:	2003bb80 	call	2003bb8 <__gtdf2>
 20033c8:	0080250e 	bge	zero,r2,2003460 <ceil+0x1e4>
 20033cc:	0440090e 	bge	zero,r17,20033f4 <ceil+0x178>
 20033d0:	00800504 	movi	r2,20
 20033d4:	b0802926 	beq	r22,r2,200347c <ceil+0x200>
 20033d8:	00c00d04 	movi	r3,52
 20033dc:	1d87c83a 	sub	r3,r3,r22
 20033e0:	00800044 	movi	r2,1
 20033e4:	10c4983a 	sll	r2,r2,r3
 20033e8:	8085883a 	add	r2,r16,r2
 20033ec:	14001e36 	bltu	r2,r16,2003468 <ceil+0x1ec>
 20033f0:	1025883a 	mov	r18,r2
 20033f4:	0704303a 	nor	r2,zero,fp
 20033f8:	90a4703a 	and	r18,r18,r2
 20033fc:	003fcf06 	br	200333c <ceil+0xc0>
 2003400:	00810004 	movi	r2,1024
 2003404:	b0bfcf1e 	bne	r22,r2,2003344 <ceil+0xc8>
 2003408:	800d883a 	mov	r6,r16
 200340c:	280f883a 	mov	r7,r5
 2003410:	2003b440 	call	2003b44 <__adddf3>
 2003414:	1021883a 	mov	r16,r2
 2003418:	1823883a 	mov	r17,r3
 200341c:	003fc906 	br	2003344 <ceil+0xc8>
 2003420:	00a20034 	movhi	r2,34816
 2003424:	109d6704 	addi	r2,r2,30108
 2003428:	00df8e34 	movhi	r3,32312
 200342c:	18f90f04 	addi	r3,r3,-7108
 2003430:	180f883a 	mov	r7,r3
 2003434:	100d883a 	mov	r6,r2
 2003438:	2003b440 	call	2003b44 <__adddf3>
 200343c:	180b883a 	mov	r5,r3
 2003440:	000d883a 	mov	r6,zero
 2003444:	000f883a 	mov	r7,zero
 2003448:	1009883a 	mov	r4,r2
 200344c:	2003bb80 	call	2003bb8 <__gtdf2>
 2003450:	00bfba0e 	bge	zero,r2,200333c <ceil+0xc0>
 2003454:	88000b16 	blt	r17,zero,2003484 <ceil+0x208>
 2003458:	8c04b03a 	or	r2,r17,r16
 200345c:	1000041e 	bne	r2,zero,2003470 <ceil+0x1f4>
 2003460:	882f883a 	mov	r23,r17
 2003464:	003fb506 	br	200333c <ceil+0xc0>
 2003468:	8dc00044 	addi	r23,r17,1
 200346c:	003fe006 	br	20033f0 <ceil+0x174>
 2003470:	05cffc34 	movhi	r23,16368
 2003474:	0025883a 	mov	r18,zero
 2003478:	003fb006 	br	200333c <ceil+0xc0>
 200347c:	8dc00044 	addi	r23,r17,1
 2003480:	003fdc06 	br	20033f4 <ceil+0x178>
 2003484:	05e00034 	movhi	r23,32768
 2003488:	0025883a 	mov	r18,zero
 200348c:	003fab06 	br	200333c <ceil+0xc0>

02003490 <floor>:
 2003490:	2805d53a 	srai	r2,r5,20
 2003494:	defff604 	addi	sp,sp,-40
 2003498:	dd800615 	stw	r22,24(sp)
 200349c:	10c1ffcc 	andi	r3,r2,2047
 20034a0:	1dbf0044 	addi	r22,r3,-1023
 20034a4:	008004c4 	movi	r2,19
 20034a8:	ddc00715 	stw	r23,28(sp)
 20034ac:	dc800215 	stw	r18,8(sp)
 20034b0:	dc400115 	stw	r17,4(sp)
 20034b4:	dc000015 	stw	r16,0(sp)
 20034b8:	dfc00915 	stw	ra,36(sp)
 20034bc:	df000815 	stw	fp,32(sp)
 20034c0:	dd400515 	stw	r21,20(sp)
 20034c4:	dd000415 	stw	r20,16(sp)
 20034c8:	dcc00315 	stw	r19,12(sp)
 20034cc:	2021883a 	mov	r16,r4
 20034d0:	2823883a 	mov	r17,r5
 20034d4:	282f883a 	mov	r23,r5
 20034d8:	2025883a 	mov	r18,r4
 20034dc:	15802916 	blt	r2,r22,2003584 <floor+0xf4>
 20034e0:	b0004816 	blt	r22,zero,2003604 <floor+0x174>
 20034e4:	00800434 	movhi	r2,16
 20034e8:	10bfffc4 	addi	r2,r2,-1
 20034ec:	15b9d83a 	sra	fp,r2,r22
 20034f0:	282f883a 	mov	r23,r5
 20034f4:	e144703a 	and	r2,fp,r5
 20034f8:	1104b03a 	or	r2,r2,r4
 20034fc:	10001326 	beq	r2,zero,200354c <floor+0xbc>
 2003500:	00a20034 	movhi	r2,34816
 2003504:	109d6704 	addi	r2,r2,30108
 2003508:	00df8e34 	movhi	r3,32312
 200350c:	18f90f04 	addi	r3,r3,-7108
 2003510:	180f883a 	mov	r7,r3
 2003514:	100d883a 	mov	r6,r2
 2003518:	2003b440 	call	2003b44 <__adddf3>
 200351c:	180b883a 	mov	r5,r3
 2003520:	000d883a 	mov	r6,zero
 2003524:	000f883a 	mov	r7,zero
 2003528:	1009883a 	mov	r4,r2
 200352c:	2003bb80 	call	2003bb8 <__gtdf2>
 2003530:	0080040e 	bge	zero,r2,2003544 <floor+0xb4>
 2003534:	88004416 	blt	r17,zero,2003648 <floor+0x1b8>
 2003538:	0704303a 	nor	r2,zero,fp
 200353c:	b8ae703a 	and	r23,r23,r2
 2003540:	0025883a 	mov	r18,zero
 2003544:	9021883a 	mov	r16,r18
 2003548:	b823883a 	mov	r17,r23
 200354c:	8005883a 	mov	r2,r16
 2003550:	8807883a 	mov	r3,r17
 2003554:	dfc00917 	ldw	ra,36(sp)
 2003558:	df000817 	ldw	fp,32(sp)
 200355c:	ddc00717 	ldw	r23,28(sp)
 2003560:	dd800617 	ldw	r22,24(sp)
 2003564:	dd400517 	ldw	r21,20(sp)
 2003568:	dd000417 	ldw	r20,16(sp)
 200356c:	dcc00317 	ldw	r19,12(sp)
 2003570:	dc800217 	ldw	r18,8(sp)
 2003574:	dc400117 	ldw	r17,4(sp)
 2003578:	dc000017 	ldw	r16,0(sp)
 200357c:	dec00a04 	addi	sp,sp,40
 2003580:	f800283a 	ret
 2003584:	00800cc4 	movi	r2,51
 2003588:	15801616 	blt	r2,r22,20035e4 <floor+0x154>
 200358c:	18befb44 	addi	r2,r3,-1043
 2003590:	00ffffc4 	movi	r3,-1
 2003594:	18b8d83a 	srl	fp,r3,r2
 2003598:	e104703a 	and	r2,fp,r4
 200359c:	103feb26 	beq	r2,zero,200354c <floor+0xbc>
 20035a0:	00a20034 	movhi	r2,34816
 20035a4:	109d6704 	addi	r2,r2,30108
 20035a8:	00df8e34 	movhi	r3,32312
 20035ac:	18f90f04 	addi	r3,r3,-7108
 20035b0:	180f883a 	mov	r7,r3
 20035b4:	100d883a 	mov	r6,r2
 20035b8:	2003b440 	call	2003b44 <__adddf3>
 20035bc:	180b883a 	mov	r5,r3
 20035c0:	000d883a 	mov	r6,zero
 20035c4:	000f883a 	mov	r7,zero
 20035c8:	1009883a 	mov	r4,r2
 20035cc:	2003bb80 	call	2003bb8 <__gtdf2>
 20035d0:	0080210e 	bge	zero,r2,2003658 <floor+0x1c8>
 20035d4:	88002216 	blt	r17,zero,2003660 <floor+0x1d0>
 20035d8:	0704303a 	nor	r2,zero,fp
 20035dc:	90a4703a 	and	r18,r18,r2
 20035e0:	003fd806 	br	2003544 <floor+0xb4>
 20035e4:	00810004 	movi	r2,1024
 20035e8:	b0bfd81e 	bne	r22,r2,200354c <floor+0xbc>
 20035ec:	800d883a 	mov	r6,r16
 20035f0:	280f883a 	mov	r7,r5
 20035f4:	2003b440 	call	2003b44 <__adddf3>
 20035f8:	1021883a 	mov	r16,r2
 20035fc:	1823883a 	mov	r17,r3
 2003600:	003fd206 	br	200354c <floor+0xbc>
 2003604:	00a20034 	movhi	r2,34816
 2003608:	109d6704 	addi	r2,r2,30108
 200360c:	00df8e34 	movhi	r3,32312
 2003610:	18f90f04 	addi	r3,r3,-7108
 2003614:	180f883a 	mov	r7,r3
 2003618:	100d883a 	mov	r6,r2
 200361c:	2003b440 	call	2003b44 <__adddf3>
 2003620:	180b883a 	mov	r5,r3
 2003624:	000d883a 	mov	r6,zero
 2003628:	000f883a 	mov	r7,zero
 200362c:	1009883a 	mov	r4,r2
 2003630:	2003bb80 	call	2003bb8 <__gtdf2>
 2003634:	00bfc30e 	bge	zero,r2,2003544 <floor+0xb4>
 2003638:	88001416 	blt	r17,zero,200368c <floor+0x1fc>
 200363c:	002f883a 	mov	r23,zero
 2003640:	0025883a 	mov	r18,zero
 2003644:	003fbf06 	br	2003544 <floor+0xb4>
 2003648:	00800434 	movhi	r2,16
 200364c:	1585d83a 	sra	r2,r2,r22
 2003650:	88af883a 	add	r23,r17,r2
 2003654:	003fb806 	br	2003538 <floor+0xa8>
 2003658:	882f883a 	mov	r23,r17
 200365c:	003fb906 	br	2003544 <floor+0xb4>
 2003660:	00800504 	movi	r2,20
 2003664:	b0801126 	beq	r22,r2,20036ac <floor+0x21c>
 2003668:	00c00d04 	movi	r3,52
 200366c:	1d87c83a 	sub	r3,r3,r22
 2003670:	00800044 	movi	r2,1
 2003674:	10c4983a 	sll	r2,r2,r3
 2003678:	8085883a 	add	r2,r16,r2
 200367c:	1400012e 	bgeu	r2,r16,2003684 <floor+0x1f4>
 2003680:	8dc00044 	addi	r23,r17,1
 2003684:	1025883a 	mov	r18,r2
 2003688:	003fd306 	br	20035d8 <floor+0x148>
 200368c:	00a00034 	movhi	r2,32768
 2003690:	10bfffc4 	addi	r2,r2,-1
 2003694:	8884703a 	and	r2,r17,r2
 2003698:	8084b03a 	or	r2,r16,r2
 200369c:	103fee26 	beq	r2,zero,2003658 <floor+0x1c8>
 20036a0:	05effc34 	movhi	r23,49136
 20036a4:	0025883a 	mov	r18,zero
 20036a8:	003fa606 	br	2003544 <floor+0xb4>
 20036ac:	8dc00044 	addi	r23,r17,1
 20036b0:	003fc906 	br	20035d8 <floor+0x148>

020036b4 <_fpadd_parts>:
 20036b4:	defff804 	addi	sp,sp,-32
 20036b8:	dcc00315 	stw	r19,12(sp)
 20036bc:	2027883a 	mov	r19,r4
 20036c0:	21000017 	ldw	r4,0(r4)
 20036c4:	00c00044 	movi	r3,1
 20036c8:	dd400515 	stw	r21,20(sp)
 20036cc:	dd000415 	stw	r20,16(sp)
 20036d0:	ddc00715 	stw	r23,28(sp)
 20036d4:	dd800615 	stw	r22,24(sp)
 20036d8:	dc800215 	stw	r18,8(sp)
 20036dc:	dc400115 	stw	r17,4(sp)
 20036e0:	dc000015 	stw	r16,0(sp)
 20036e4:	282b883a 	mov	r21,r5
 20036e8:	3029883a 	mov	r20,r6
 20036ec:	1900632e 	bgeu	r3,r4,200387c <_fpadd_parts+0x1c8>
 20036f0:	28800017 	ldw	r2,0(r5)
 20036f4:	1880812e 	bgeu	r3,r2,20038fc <_fpadd_parts+0x248>
 20036f8:	00c00104 	movi	r3,4
 20036fc:	20c0dc26 	beq	r4,r3,2003a70 <_fpadd_parts+0x3bc>
 2003700:	10c07e26 	beq	r2,r3,20038fc <_fpadd_parts+0x248>
 2003704:	00c00084 	movi	r3,2
 2003708:	10c06726 	beq	r2,r3,20038a8 <_fpadd_parts+0x1f4>
 200370c:	20c07b26 	beq	r4,r3,20038fc <_fpadd_parts+0x248>
 2003710:	9dc00217 	ldw	r23,8(r19)
 2003714:	28c00217 	ldw	r3,8(r5)
 2003718:	9c400317 	ldw	r17,12(r19)
 200371c:	2bc00317 	ldw	r15,12(r5)
 2003720:	b8cdc83a 	sub	r6,r23,r3
 2003724:	9c800417 	ldw	r18,16(r19)
 2003728:	2c000417 	ldw	r16,16(r5)
 200372c:	3009883a 	mov	r4,r6
 2003730:	30009716 	blt	r6,zero,2003990 <_fpadd_parts+0x2dc>
 2003734:	00800fc4 	movi	r2,63
 2003738:	11806b16 	blt	r2,r6,20038e8 <_fpadd_parts+0x234>
 200373c:	0100a40e 	bge	zero,r4,20039d0 <_fpadd_parts+0x31c>
 2003740:	35bff804 	addi	r22,r6,-32
 2003744:	b000bc16 	blt	r22,zero,2003a38 <_fpadd_parts+0x384>
 2003748:	8596d83a 	srl	r11,r16,r22
 200374c:	0019883a 	mov	r12,zero
 2003750:	0013883a 	mov	r9,zero
 2003754:	01000044 	movi	r4,1
 2003758:	0015883a 	mov	r10,zero
 200375c:	b000be16 	blt	r22,zero,2003a58 <_fpadd_parts+0x3a4>
 2003760:	2590983a 	sll	r8,r4,r22
 2003764:	000f883a 	mov	r7,zero
 2003768:	00bfffc4 	movi	r2,-1
 200376c:	3889883a 	add	r4,r7,r2
 2003770:	408b883a 	add	r5,r8,r2
 2003774:	21cd803a 	cmpltu	r6,r4,r7
 2003778:	314b883a 	add	r5,r6,r5
 200377c:	7904703a 	and	r2,r15,r4
 2003780:	8146703a 	and	r3,r16,r5
 2003784:	10c4b03a 	or	r2,r2,r3
 2003788:	10000226 	beq	r2,zero,2003794 <_fpadd_parts+0xe0>
 200378c:	02400044 	movi	r9,1
 2003790:	0015883a 	mov	r10,zero
 2003794:	5a5eb03a 	or	r15,r11,r9
 2003798:	62a0b03a 	or	r16,r12,r10
 200379c:	99400117 	ldw	r5,4(r19)
 20037a0:	a8800117 	ldw	r2,4(r21)
 20037a4:	28806e26 	beq	r5,r2,2003960 <_fpadd_parts+0x2ac>
 20037a8:	28006626 	beq	r5,zero,2003944 <_fpadd_parts+0x290>
 20037ac:	7c45c83a 	sub	r2,r15,r17
 20037b0:	7889803a 	cmpltu	r4,r15,r2
 20037b4:	8487c83a 	sub	r3,r16,r18
 20037b8:	1909c83a 	sub	r4,r3,r4
 20037bc:	100d883a 	mov	r6,r2
 20037c0:	200f883a 	mov	r7,r4
 20037c4:	38007716 	blt	r7,zero,20039a4 <_fpadd_parts+0x2f0>
 20037c8:	a5c00215 	stw	r23,8(r20)
 20037cc:	a1c00415 	stw	r7,16(r20)
 20037d0:	a0000115 	stw	zero,4(r20)
 20037d4:	a1800315 	stw	r6,12(r20)
 20037d8:	a2000317 	ldw	r8,12(r20)
 20037dc:	a2400417 	ldw	r9,16(r20)
 20037e0:	00bfffc4 	movi	r2,-1
 20037e4:	408b883a 	add	r5,r8,r2
 20037e8:	2a09803a 	cmpltu	r4,r5,r8
 20037ec:	488d883a 	add	r6,r9,r2
 20037f0:	01c40034 	movhi	r7,4096
 20037f4:	39ffffc4 	addi	r7,r7,-1
 20037f8:	218d883a 	add	r6,r4,r6
 20037fc:	39801736 	bltu	r7,r6,200385c <_fpadd_parts+0x1a8>
 2003800:	31c06526 	beq	r6,r7,2003998 <_fpadd_parts+0x2e4>
 2003804:	a3000217 	ldw	r12,8(r20)
 2003808:	4209883a 	add	r4,r8,r8
 200380c:	00bfffc4 	movi	r2,-1
 2003810:	220f803a 	cmpltu	r7,r4,r8
 2003814:	4a4b883a 	add	r5,r9,r9
 2003818:	394f883a 	add	r7,r7,r5
 200381c:	2095883a 	add	r10,r4,r2
 2003820:	3897883a 	add	r11,r7,r2
 2003824:	510d803a 	cmpltu	r6,r10,r4
 2003828:	6099883a 	add	r12,r12,r2
 200382c:	32d7883a 	add	r11,r6,r11
 2003830:	00840034 	movhi	r2,4096
 2003834:	10bfffc4 	addi	r2,r2,-1
 2003838:	2011883a 	mov	r8,r4
 200383c:	3813883a 	mov	r9,r7
 2003840:	a1000315 	stw	r4,12(r20)
 2003844:	a1c00415 	stw	r7,16(r20)
 2003848:	a3000215 	stw	r12,8(r20)
 200384c:	12c00336 	bltu	r2,r11,200385c <_fpadd_parts+0x1a8>
 2003850:	58bfed1e 	bne	r11,r2,2003808 <_fpadd_parts+0x154>
 2003854:	00bfff84 	movi	r2,-2
 2003858:	12bfeb2e 	bgeu	r2,r10,2003808 <_fpadd_parts+0x154>
 200385c:	a2800417 	ldw	r10,16(r20)
 2003860:	008000c4 	movi	r2,3
 2003864:	00c80034 	movhi	r3,8192
 2003868:	18ffffc4 	addi	r3,r3,-1
 200386c:	a2400317 	ldw	r9,12(r20)
 2003870:	a0800015 	stw	r2,0(r20)
 2003874:	1a802336 	bltu	r3,r10,2003904 <_fpadd_parts+0x250>
 2003878:	a027883a 	mov	r19,r20
 200387c:	9805883a 	mov	r2,r19
 2003880:	ddc00717 	ldw	r23,28(sp)
 2003884:	dd800617 	ldw	r22,24(sp)
 2003888:	dd400517 	ldw	r21,20(sp)
 200388c:	dd000417 	ldw	r20,16(sp)
 2003890:	dcc00317 	ldw	r19,12(sp)
 2003894:	dc800217 	ldw	r18,8(sp)
 2003898:	dc400117 	ldw	r17,4(sp)
 200389c:	dc000017 	ldw	r16,0(sp)
 20038a0:	dec00804 	addi	sp,sp,32
 20038a4:	f800283a 	ret
 20038a8:	20fff41e 	bne	r4,r3,200387c <_fpadd_parts+0x1c8>
 20038ac:	31000015 	stw	r4,0(r6)
 20038b0:	98800117 	ldw	r2,4(r19)
 20038b4:	30800115 	stw	r2,4(r6)
 20038b8:	98c00217 	ldw	r3,8(r19)
 20038bc:	30c00215 	stw	r3,8(r6)
 20038c0:	98800317 	ldw	r2,12(r19)
 20038c4:	30800315 	stw	r2,12(r6)
 20038c8:	98c00417 	ldw	r3,16(r19)
 20038cc:	30c00415 	stw	r3,16(r6)
 20038d0:	98800117 	ldw	r2,4(r19)
 20038d4:	28c00117 	ldw	r3,4(r5)
 20038d8:	3027883a 	mov	r19,r6
 20038dc:	10c4703a 	and	r2,r2,r3
 20038e0:	30800115 	stw	r2,4(r6)
 20038e4:	003fe506 	br	200387c <_fpadd_parts+0x1c8>
 20038e8:	1dc02616 	blt	r3,r23,2003984 <_fpadd_parts+0x2d0>
 20038ec:	0023883a 	mov	r17,zero
 20038f0:	182f883a 	mov	r23,r3
 20038f4:	0025883a 	mov	r18,zero
 20038f8:	003fa806 	br	200379c <_fpadd_parts+0xe8>
 20038fc:	a827883a 	mov	r19,r21
 2003900:	003fde06 	br	200387c <_fpadd_parts+0x1c8>
 2003904:	01800044 	movi	r6,1
 2003908:	500497fa 	slli	r2,r10,31
 200390c:	4808d07a 	srli	r4,r9,1
 2003910:	518ad83a 	srl	r5,r10,r6
 2003914:	a2000217 	ldw	r8,8(r20)
 2003918:	1108b03a 	or	r4,r2,r4
 200391c:	0007883a 	mov	r3,zero
 2003920:	4984703a 	and	r2,r9,r6
 2003924:	208cb03a 	or	r6,r4,r2
 2003928:	28ceb03a 	or	r7,r5,r3
 200392c:	42000044 	addi	r8,r8,1
 2003930:	a027883a 	mov	r19,r20
 2003934:	a1c00415 	stw	r7,16(r20)
 2003938:	a2000215 	stw	r8,8(r20)
 200393c:	a1800315 	stw	r6,12(r20)
 2003940:	003fce06 	br	200387c <_fpadd_parts+0x1c8>
 2003944:	8bc5c83a 	sub	r2,r17,r15
 2003948:	8889803a 	cmpltu	r4,r17,r2
 200394c:	9407c83a 	sub	r3,r18,r16
 2003950:	1909c83a 	sub	r4,r3,r4
 2003954:	100d883a 	mov	r6,r2
 2003958:	200f883a 	mov	r7,r4
 200395c:	003f9906 	br	20037c4 <_fpadd_parts+0x110>
 2003960:	8bc5883a 	add	r2,r17,r15
 2003964:	1449803a 	cmpltu	r4,r2,r17
 2003968:	9407883a 	add	r3,r18,r16
 200396c:	20c9883a 	add	r4,r4,r3
 2003970:	a1400115 	stw	r5,4(r20)
 2003974:	a5c00215 	stw	r23,8(r20)
 2003978:	a0800315 	stw	r2,12(r20)
 200397c:	a1000415 	stw	r4,16(r20)
 2003980:	003fb606 	br	200385c <_fpadd_parts+0x1a8>
 2003984:	001f883a 	mov	r15,zero
 2003988:	0021883a 	mov	r16,zero
 200398c:	003f8306 	br	200379c <_fpadd_parts+0xe8>
 2003990:	018dc83a 	sub	r6,zero,r6
 2003994:	003f6706 	br	2003734 <_fpadd_parts+0x80>
 2003998:	00bfff84 	movi	r2,-2
 200399c:	117faf36 	bltu	r2,r5,200385c <_fpadd_parts+0x1a8>
 20039a0:	003f9806 	br	2003804 <_fpadd_parts+0x150>
 20039a4:	0005883a 	mov	r2,zero
 20039a8:	1189c83a 	sub	r4,r2,r6
 20039ac:	1105803a 	cmpltu	r2,r2,r4
 20039b0:	01cbc83a 	sub	r5,zero,r7
 20039b4:	2885c83a 	sub	r2,r5,r2
 20039b8:	01800044 	movi	r6,1
 20039bc:	a1800115 	stw	r6,4(r20)
 20039c0:	a5c00215 	stw	r23,8(r20)
 20039c4:	a1000315 	stw	r4,12(r20)
 20039c8:	a0800415 	stw	r2,16(r20)
 20039cc:	003f8206 	br	20037d8 <_fpadd_parts+0x124>
 20039d0:	203f7226 	beq	r4,zero,200379c <_fpadd_parts+0xe8>
 20039d4:	35bff804 	addi	r22,r6,-32
 20039d8:	b9af883a 	add	r23,r23,r6
 20039dc:	b0003116 	blt	r22,zero,2003aa4 <_fpadd_parts+0x3f0>
 20039e0:	959ad83a 	srl	r13,r18,r22
 20039e4:	001d883a 	mov	r14,zero
 20039e8:	000f883a 	mov	r7,zero
 20039ec:	01000044 	movi	r4,1
 20039f0:	0011883a 	mov	r8,zero
 20039f4:	b0002516 	blt	r22,zero,2003a8c <_fpadd_parts+0x3d8>
 20039f8:	2594983a 	sll	r10,r4,r22
 20039fc:	0013883a 	mov	r9,zero
 2003a00:	00bfffc4 	movi	r2,-1
 2003a04:	4889883a 	add	r4,r9,r2
 2003a08:	508b883a 	add	r5,r10,r2
 2003a0c:	224d803a 	cmpltu	r6,r4,r9
 2003a10:	314b883a 	add	r5,r6,r5
 2003a14:	8904703a 	and	r2,r17,r4
 2003a18:	9146703a 	and	r3,r18,r5
 2003a1c:	10c4b03a 	or	r2,r2,r3
 2003a20:	10000226 	beq	r2,zero,2003a2c <_fpadd_parts+0x378>
 2003a24:	01c00044 	movi	r7,1
 2003a28:	0011883a 	mov	r8,zero
 2003a2c:	69e2b03a 	or	r17,r13,r7
 2003a30:	7224b03a 	or	r18,r14,r8
 2003a34:	003f5906 	br	200379c <_fpadd_parts+0xe8>
 2003a38:	8407883a 	add	r3,r16,r16
 2003a3c:	008007c4 	movi	r2,31
 2003a40:	1185c83a 	sub	r2,r2,r6
 2003a44:	1886983a 	sll	r3,r3,r2
 2003a48:	7996d83a 	srl	r11,r15,r6
 2003a4c:	8198d83a 	srl	r12,r16,r6
 2003a50:	1ad6b03a 	or	r11,r3,r11
 2003a54:	003f3e06 	br	2003750 <_fpadd_parts+0x9c>
 2003a58:	2006d07a 	srli	r3,r4,1
 2003a5c:	008007c4 	movi	r2,31
 2003a60:	1185c83a 	sub	r2,r2,r6
 2003a64:	1890d83a 	srl	r8,r3,r2
 2003a68:	218e983a 	sll	r7,r4,r6
 2003a6c:	003f3e06 	br	2003768 <_fpadd_parts+0xb4>
 2003a70:	113f821e 	bne	r2,r4,200387c <_fpadd_parts+0x1c8>
 2003a74:	28c00117 	ldw	r3,4(r5)
 2003a78:	98800117 	ldw	r2,4(r19)
 2003a7c:	10ff7f26 	beq	r2,r3,200387c <_fpadd_parts+0x1c8>
 2003a80:	04c08074 	movhi	r19,513
 2003a84:	9cc4d604 	addi	r19,r19,4952
 2003a88:	003f7c06 	br	200387c <_fpadd_parts+0x1c8>
 2003a8c:	2006d07a 	srli	r3,r4,1
 2003a90:	008007c4 	movi	r2,31
 2003a94:	1185c83a 	sub	r2,r2,r6
 2003a98:	1894d83a 	srl	r10,r3,r2
 2003a9c:	2192983a 	sll	r9,r4,r6
 2003aa0:	003fd706 	br	2003a00 <_fpadd_parts+0x34c>
 2003aa4:	9487883a 	add	r3,r18,r18
 2003aa8:	008007c4 	movi	r2,31
 2003aac:	1185c83a 	sub	r2,r2,r6
 2003ab0:	1886983a 	sll	r3,r3,r2
 2003ab4:	899ad83a 	srl	r13,r17,r6
 2003ab8:	919cd83a 	srl	r14,r18,r6
 2003abc:	1b5ab03a 	or	r13,r3,r13
 2003ac0:	003fc906 	br	20039e8 <_fpadd_parts+0x334>

02003ac4 <__subdf3>:
 2003ac4:	deffea04 	addi	sp,sp,-88
 2003ac8:	dcc01415 	stw	r19,80(sp)
 2003acc:	dcc00404 	addi	r19,sp,16
 2003ad0:	2011883a 	mov	r8,r4
 2003ad4:	2813883a 	mov	r9,r5
 2003ad8:	dc401315 	stw	r17,76(sp)
 2003adc:	d809883a 	mov	r4,sp
 2003ae0:	980b883a 	mov	r5,r19
 2003ae4:	dc400904 	addi	r17,sp,36
 2003ae8:	dfc01515 	stw	ra,84(sp)
 2003aec:	da400115 	stw	r9,4(sp)
 2003af0:	d9c00315 	stw	r7,12(sp)
 2003af4:	da000015 	stw	r8,0(sp)
 2003af8:	d9800215 	stw	r6,8(sp)
 2003afc:	20044bc0 	call	20044bc <__unpack_d>
 2003b00:	d9000204 	addi	r4,sp,8
 2003b04:	880b883a 	mov	r5,r17
 2003b08:	20044bc0 	call	20044bc <__unpack_d>
 2003b0c:	d8800a17 	ldw	r2,40(sp)
 2003b10:	880b883a 	mov	r5,r17
 2003b14:	9809883a 	mov	r4,r19
 2003b18:	d9800e04 	addi	r6,sp,56
 2003b1c:	1080005c 	xori	r2,r2,1
 2003b20:	d8800a15 	stw	r2,40(sp)
 2003b24:	20036b40 	call	20036b4 <_fpadd_parts>
 2003b28:	1009883a 	mov	r4,r2
 2003b2c:	20041a80 	call	20041a8 <__pack_d>
 2003b30:	dfc01517 	ldw	ra,84(sp)
 2003b34:	dcc01417 	ldw	r19,80(sp)
 2003b38:	dc401317 	ldw	r17,76(sp)
 2003b3c:	dec01604 	addi	sp,sp,88
 2003b40:	f800283a 	ret

02003b44 <__adddf3>:
 2003b44:	deffea04 	addi	sp,sp,-88
 2003b48:	dcc01415 	stw	r19,80(sp)
 2003b4c:	dcc00404 	addi	r19,sp,16
 2003b50:	2011883a 	mov	r8,r4
 2003b54:	2813883a 	mov	r9,r5
 2003b58:	dc401315 	stw	r17,76(sp)
 2003b5c:	d809883a 	mov	r4,sp
 2003b60:	980b883a 	mov	r5,r19
 2003b64:	dc400904 	addi	r17,sp,36
 2003b68:	dfc01515 	stw	ra,84(sp)
 2003b6c:	da400115 	stw	r9,4(sp)
 2003b70:	d9c00315 	stw	r7,12(sp)
 2003b74:	da000015 	stw	r8,0(sp)
 2003b78:	d9800215 	stw	r6,8(sp)
 2003b7c:	20044bc0 	call	20044bc <__unpack_d>
 2003b80:	d9000204 	addi	r4,sp,8
 2003b84:	880b883a 	mov	r5,r17
 2003b88:	20044bc0 	call	20044bc <__unpack_d>
 2003b8c:	d9800e04 	addi	r6,sp,56
 2003b90:	9809883a 	mov	r4,r19
 2003b94:	880b883a 	mov	r5,r17
 2003b98:	20036b40 	call	20036b4 <_fpadd_parts>
 2003b9c:	1009883a 	mov	r4,r2
 2003ba0:	20041a80 	call	20041a8 <__pack_d>
 2003ba4:	dfc01517 	ldw	ra,84(sp)
 2003ba8:	dcc01417 	ldw	r19,80(sp)
 2003bac:	dc401317 	ldw	r17,76(sp)
 2003bb0:	dec01604 	addi	sp,sp,88
 2003bb4:	f800283a 	ret

02003bb8 <__gtdf2>:
 2003bb8:	deffef04 	addi	sp,sp,-68
 2003bbc:	dc400f15 	stw	r17,60(sp)
 2003bc0:	dc400404 	addi	r17,sp,16
 2003bc4:	2005883a 	mov	r2,r4
 2003bc8:	2807883a 	mov	r3,r5
 2003bcc:	dc000e15 	stw	r16,56(sp)
 2003bd0:	d809883a 	mov	r4,sp
 2003bd4:	880b883a 	mov	r5,r17
 2003bd8:	dc000904 	addi	r16,sp,36
 2003bdc:	d8c00115 	stw	r3,4(sp)
 2003be0:	d8800015 	stw	r2,0(sp)
 2003be4:	d9800215 	stw	r6,8(sp)
 2003be8:	dfc01015 	stw	ra,64(sp)
 2003bec:	d9c00315 	stw	r7,12(sp)
 2003bf0:	20044bc0 	call	20044bc <__unpack_d>
 2003bf4:	d9000204 	addi	r4,sp,8
 2003bf8:	800b883a 	mov	r5,r16
 2003bfc:	20044bc0 	call	20044bc <__unpack_d>
 2003c00:	d8800417 	ldw	r2,16(sp)
 2003c04:	00c00044 	movi	r3,1
 2003c08:	01bfffc4 	movi	r6,-1
 2003c0c:	1880062e 	bgeu	r3,r2,2003c28 <__gtdf2+0x70>
 2003c10:	d8800917 	ldw	r2,36(sp)
 2003c14:	8809883a 	mov	r4,r17
 2003c18:	800b883a 	mov	r5,r16
 2003c1c:	1880022e 	bgeu	r3,r2,2003c28 <__gtdf2+0x70>
 2003c20:	20045f40 	call	20045f4 <__fpcmp_parts_d>
 2003c24:	100d883a 	mov	r6,r2
 2003c28:	3005883a 	mov	r2,r6
 2003c2c:	dfc01017 	ldw	ra,64(sp)
 2003c30:	dc400f17 	ldw	r17,60(sp)
 2003c34:	dc000e17 	ldw	r16,56(sp)
 2003c38:	dec01104 	addi	sp,sp,68
 2003c3c:	f800283a 	ret

02003c40 <__floatsidf>:
 2003c40:	2006d7fa 	srli	r3,r4,31
 2003c44:	defff604 	addi	sp,sp,-40
 2003c48:	008000c4 	movi	r2,3
 2003c4c:	dfc00915 	stw	ra,36(sp)
 2003c50:	dcc00815 	stw	r19,32(sp)
 2003c54:	dc800715 	stw	r18,28(sp)
 2003c58:	dc400615 	stw	r17,24(sp)
 2003c5c:	dc000515 	stw	r16,20(sp)
 2003c60:	d8800015 	stw	r2,0(sp)
 2003c64:	d8c00115 	stw	r3,4(sp)
 2003c68:	20000f1e 	bne	r4,zero,2003ca8 <__floatsidf+0x68>
 2003c6c:	00800084 	movi	r2,2
 2003c70:	d8800015 	stw	r2,0(sp)
 2003c74:	d809883a 	mov	r4,sp
 2003c78:	20041a80 	call	20041a8 <__pack_d>
 2003c7c:	1009883a 	mov	r4,r2
 2003c80:	180b883a 	mov	r5,r3
 2003c84:	2005883a 	mov	r2,r4
 2003c88:	2807883a 	mov	r3,r5
 2003c8c:	dfc00917 	ldw	ra,36(sp)
 2003c90:	dcc00817 	ldw	r19,32(sp)
 2003c94:	dc800717 	ldw	r18,28(sp)
 2003c98:	dc400617 	ldw	r17,24(sp)
 2003c9c:	dc000517 	ldw	r16,20(sp)
 2003ca0:	dec00a04 	addi	sp,sp,40
 2003ca4:	f800283a 	ret
 2003ca8:	00800f04 	movi	r2,60
 2003cac:	1807003a 	cmpeq	r3,r3,zero
 2003cb0:	d8800215 	stw	r2,8(sp)
 2003cb4:	18001126 	beq	r3,zero,2003cfc <__floatsidf+0xbc>
 2003cb8:	0027883a 	mov	r19,zero
 2003cbc:	2025883a 	mov	r18,r4
 2003cc0:	d9000315 	stw	r4,12(sp)
 2003cc4:	dcc00415 	stw	r19,16(sp)
 2003cc8:	20041280 	call	2004128 <__clzsi2>
 2003ccc:	11000744 	addi	r4,r2,29
 2003cd0:	013fe80e 	bge	zero,r4,2003c74 <__floatsidf+0x34>
 2003cd4:	10bfff44 	addi	r2,r2,-3
 2003cd8:	10000c16 	blt	r2,zero,2003d0c <__floatsidf+0xcc>
 2003cdc:	90a2983a 	sll	r17,r18,r2
 2003ce0:	0021883a 	mov	r16,zero
 2003ce4:	d8800217 	ldw	r2,8(sp)
 2003ce8:	dc400415 	stw	r17,16(sp)
 2003cec:	dc000315 	stw	r16,12(sp)
 2003cf0:	1105c83a 	sub	r2,r2,r4
 2003cf4:	d8800215 	stw	r2,8(sp)
 2003cf8:	003fde06 	br	2003c74 <__floatsidf+0x34>
 2003cfc:	00a00034 	movhi	r2,32768
 2003d00:	20800a26 	beq	r4,r2,2003d2c <__floatsidf+0xec>
 2003d04:	0109c83a 	sub	r4,zero,r4
 2003d08:	003feb06 	br	2003cb8 <__floatsidf+0x78>
 2003d0c:	9006d07a 	srli	r3,r18,1
 2003d10:	008007c4 	movi	r2,31
 2003d14:	1105c83a 	sub	r2,r2,r4
 2003d18:	1886d83a 	srl	r3,r3,r2
 2003d1c:	9922983a 	sll	r17,r19,r4
 2003d20:	9120983a 	sll	r16,r18,r4
 2003d24:	1c62b03a 	or	r17,r3,r17
 2003d28:	003fee06 	br	2003ce4 <__floatsidf+0xa4>
 2003d2c:	0009883a 	mov	r4,zero
 2003d30:	01707834 	movhi	r5,49632
 2003d34:	003fd306 	br	2003c84 <__floatsidf+0x44>

02003d38 <__fixdfsi>:
 2003d38:	defff804 	addi	sp,sp,-32
 2003d3c:	2005883a 	mov	r2,r4
 2003d40:	2807883a 	mov	r3,r5
 2003d44:	d809883a 	mov	r4,sp
 2003d48:	d9400204 	addi	r5,sp,8
 2003d4c:	d8c00115 	stw	r3,4(sp)
 2003d50:	d8800015 	stw	r2,0(sp)
 2003d54:	dfc00715 	stw	ra,28(sp)
 2003d58:	20044bc0 	call	20044bc <__unpack_d>
 2003d5c:	d8c00217 	ldw	r3,8(sp)
 2003d60:	00800084 	movi	r2,2
 2003d64:	1880051e 	bne	r3,r2,2003d7c <__fixdfsi+0x44>
 2003d68:	0007883a 	mov	r3,zero
 2003d6c:	1805883a 	mov	r2,r3
 2003d70:	dfc00717 	ldw	ra,28(sp)
 2003d74:	dec00804 	addi	sp,sp,32
 2003d78:	f800283a 	ret
 2003d7c:	00800044 	movi	r2,1
 2003d80:	10fff92e 	bgeu	r2,r3,2003d68 <__fixdfsi+0x30>
 2003d84:	00800104 	movi	r2,4
 2003d88:	18800426 	beq	r3,r2,2003d9c <__fixdfsi+0x64>
 2003d8c:	d8c00417 	ldw	r3,16(sp)
 2003d90:	183ff516 	blt	r3,zero,2003d68 <__fixdfsi+0x30>
 2003d94:	00800784 	movi	r2,30
 2003d98:	10c0080e 	bge	r2,r3,2003dbc <__fixdfsi+0x84>
 2003d9c:	d8800317 	ldw	r2,12(sp)
 2003da0:	1000121e 	bne	r2,zero,2003dec <__fixdfsi+0xb4>
 2003da4:	00e00034 	movhi	r3,32768
 2003da8:	18ffffc4 	addi	r3,r3,-1
 2003dac:	1805883a 	mov	r2,r3
 2003db0:	dfc00717 	ldw	ra,28(sp)
 2003db4:	dec00804 	addi	sp,sp,32
 2003db8:	f800283a 	ret
 2003dbc:	00800f04 	movi	r2,60
 2003dc0:	10d1c83a 	sub	r8,r2,r3
 2003dc4:	40bff804 	addi	r2,r8,-32
 2003dc8:	d9800517 	ldw	r6,20(sp)
 2003dcc:	d9c00617 	ldw	r7,24(sp)
 2003dd0:	10000816 	blt	r2,zero,2003df4 <__fixdfsi+0xbc>
 2003dd4:	3888d83a 	srl	r4,r7,r2
 2003dd8:	d8800317 	ldw	r2,12(sp)
 2003ddc:	2007883a 	mov	r3,r4
 2003de0:	103fe226 	beq	r2,zero,2003d6c <__fixdfsi+0x34>
 2003de4:	0107c83a 	sub	r3,zero,r4
 2003de8:	003fe006 	br	2003d6c <__fixdfsi+0x34>
 2003dec:	00e00034 	movhi	r3,32768
 2003df0:	003fde06 	br	2003d6c <__fixdfsi+0x34>
 2003df4:	39c7883a 	add	r3,r7,r7
 2003df8:	008007c4 	movi	r2,31
 2003dfc:	1205c83a 	sub	r2,r2,r8
 2003e00:	1886983a 	sll	r3,r3,r2
 2003e04:	3208d83a 	srl	r4,r6,r8
 2003e08:	1908b03a 	or	r4,r3,r4
 2003e0c:	003ff206 	br	2003dd8 <__fixdfsi+0xa0>

02003e10 <__floatunsidf>:
 2003e10:	defff204 	addi	sp,sp,-56
 2003e14:	dfc00d15 	stw	ra,52(sp)
 2003e18:	ddc00c15 	stw	r23,48(sp)
 2003e1c:	dd800b15 	stw	r22,44(sp)
 2003e20:	dd400a15 	stw	r21,40(sp)
 2003e24:	dd000915 	stw	r20,36(sp)
 2003e28:	dcc00815 	stw	r19,32(sp)
 2003e2c:	dc800715 	stw	r18,28(sp)
 2003e30:	dc400615 	stw	r17,24(sp)
 2003e34:	dc000515 	stw	r16,20(sp)
 2003e38:	d8000115 	stw	zero,4(sp)
 2003e3c:	20000f1e 	bne	r4,zero,2003e7c <__floatunsidf+0x6c>
 2003e40:	00800084 	movi	r2,2
 2003e44:	d8800015 	stw	r2,0(sp)
 2003e48:	d809883a 	mov	r4,sp
 2003e4c:	20041a80 	call	20041a8 <__pack_d>
 2003e50:	dfc00d17 	ldw	ra,52(sp)
 2003e54:	ddc00c17 	ldw	r23,48(sp)
 2003e58:	dd800b17 	ldw	r22,44(sp)
 2003e5c:	dd400a17 	ldw	r21,40(sp)
 2003e60:	dd000917 	ldw	r20,36(sp)
 2003e64:	dcc00817 	ldw	r19,32(sp)
 2003e68:	dc800717 	ldw	r18,28(sp)
 2003e6c:	dc400617 	ldw	r17,24(sp)
 2003e70:	dc000517 	ldw	r16,20(sp)
 2003e74:	dec00e04 	addi	sp,sp,56
 2003e78:	f800283a 	ret
 2003e7c:	008000c4 	movi	r2,3
 2003e80:	00c00f04 	movi	r3,60
 2003e84:	002f883a 	mov	r23,zero
 2003e88:	202d883a 	mov	r22,r4
 2003e8c:	d8800015 	stw	r2,0(sp)
 2003e90:	d8c00215 	stw	r3,8(sp)
 2003e94:	d9000315 	stw	r4,12(sp)
 2003e98:	ddc00415 	stw	r23,16(sp)
 2003e9c:	20041280 	call	2004128 <__clzsi2>
 2003ea0:	12400744 	addi	r9,r2,29
 2003ea4:	48000b16 	blt	r9,zero,2003ed4 <__floatunsidf+0xc4>
 2003ea8:	483fe726 	beq	r9,zero,2003e48 <__floatunsidf+0x38>
 2003eac:	10bfff44 	addi	r2,r2,-3
 2003eb0:	10002e16 	blt	r2,zero,2003f6c <__floatunsidf+0x15c>
 2003eb4:	b0a2983a 	sll	r17,r22,r2
 2003eb8:	0021883a 	mov	r16,zero
 2003ebc:	d8800217 	ldw	r2,8(sp)
 2003ec0:	dc400415 	stw	r17,16(sp)
 2003ec4:	dc000315 	stw	r16,12(sp)
 2003ec8:	1245c83a 	sub	r2,r2,r9
 2003ecc:	d8800215 	stw	r2,8(sp)
 2003ed0:	003fdd06 	br	2003e48 <__floatunsidf+0x38>
 2003ed4:	0255c83a 	sub	r10,zero,r9
 2003ed8:	51bff804 	addi	r6,r10,-32
 2003edc:	30001b16 	blt	r6,zero,2003f4c <__floatunsidf+0x13c>
 2003ee0:	b9a8d83a 	srl	r20,r23,r6
 2003ee4:	002b883a 	mov	r21,zero
 2003ee8:	000f883a 	mov	r7,zero
 2003eec:	01000044 	movi	r4,1
 2003ef0:	0011883a 	mov	r8,zero
 2003ef4:	30002516 	blt	r6,zero,2003f8c <__floatunsidf+0x17c>
 2003ef8:	21a6983a 	sll	r19,r4,r6
 2003efc:	0025883a 	mov	r18,zero
 2003f00:	00bfffc4 	movi	r2,-1
 2003f04:	9089883a 	add	r4,r18,r2
 2003f08:	988b883a 	add	r5,r19,r2
 2003f0c:	248d803a 	cmpltu	r6,r4,r18
 2003f10:	314b883a 	add	r5,r6,r5
 2003f14:	b104703a 	and	r2,r22,r4
 2003f18:	b946703a 	and	r3,r23,r5
 2003f1c:	10c4b03a 	or	r2,r2,r3
 2003f20:	10000226 	beq	r2,zero,2003f2c <__floatunsidf+0x11c>
 2003f24:	01c00044 	movi	r7,1
 2003f28:	0011883a 	mov	r8,zero
 2003f2c:	d9000217 	ldw	r4,8(sp)
 2003f30:	a1c4b03a 	or	r2,r20,r7
 2003f34:	aa06b03a 	or	r3,r21,r8
 2003f38:	2249c83a 	sub	r4,r4,r9
 2003f3c:	d8c00415 	stw	r3,16(sp)
 2003f40:	d9000215 	stw	r4,8(sp)
 2003f44:	d8800315 	stw	r2,12(sp)
 2003f48:	003fbf06 	br	2003e48 <__floatunsidf+0x38>
 2003f4c:	bdc7883a 	add	r3,r23,r23
 2003f50:	008007c4 	movi	r2,31
 2003f54:	1285c83a 	sub	r2,r2,r10
 2003f58:	1886983a 	sll	r3,r3,r2
 2003f5c:	b2a8d83a 	srl	r20,r22,r10
 2003f60:	baaad83a 	srl	r21,r23,r10
 2003f64:	1d28b03a 	or	r20,r3,r20
 2003f68:	003fdf06 	br	2003ee8 <__floatunsidf+0xd8>
 2003f6c:	b006d07a 	srli	r3,r22,1
 2003f70:	008007c4 	movi	r2,31
 2003f74:	1245c83a 	sub	r2,r2,r9
 2003f78:	1886d83a 	srl	r3,r3,r2
 2003f7c:	ba62983a 	sll	r17,r23,r9
 2003f80:	b260983a 	sll	r16,r22,r9
 2003f84:	1c62b03a 	or	r17,r3,r17
 2003f88:	003fcc06 	br	2003ebc <__floatunsidf+0xac>
 2003f8c:	2006d07a 	srli	r3,r4,1
 2003f90:	008007c4 	movi	r2,31
 2003f94:	1285c83a 	sub	r2,r2,r10
 2003f98:	18a6d83a 	srl	r19,r3,r2
 2003f9c:	22a4983a 	sll	r18,r4,r10
 2003fa0:	003fd706 	br	2003f00 <__floatunsidf+0xf0>

02003fa4 <udivmodsi4>:
 2003fa4:	29001b2e 	bgeu	r5,r4,2004014 <udivmodsi4+0x70>
 2003fa8:	28001a16 	blt	r5,zero,2004014 <udivmodsi4+0x70>
 2003fac:	00800044 	movi	r2,1
 2003fb0:	0007883a 	mov	r3,zero
 2003fb4:	01c007c4 	movi	r7,31
 2003fb8:	00000306 	br	2003fc8 <udivmodsi4+0x24>
 2003fbc:	19c01326 	beq	r3,r7,200400c <udivmodsi4+0x68>
 2003fc0:	18c00044 	addi	r3,r3,1
 2003fc4:	28000416 	blt	r5,zero,2003fd8 <udivmodsi4+0x34>
 2003fc8:	294b883a 	add	r5,r5,r5
 2003fcc:	1085883a 	add	r2,r2,r2
 2003fd0:	293ffa36 	bltu	r5,r4,2003fbc <udivmodsi4+0x18>
 2003fd4:	10000d26 	beq	r2,zero,200400c <udivmodsi4+0x68>
 2003fd8:	0007883a 	mov	r3,zero
 2003fdc:	21400236 	bltu	r4,r5,2003fe8 <udivmodsi4+0x44>
 2003fe0:	2149c83a 	sub	r4,r4,r5
 2003fe4:	1886b03a 	or	r3,r3,r2
 2003fe8:	1004d07a 	srli	r2,r2,1
 2003fec:	280ad07a 	srli	r5,r5,1
 2003ff0:	103ffa1e 	bne	r2,zero,2003fdc <udivmodsi4+0x38>
 2003ff4:	30000226 	beq	r6,zero,2004000 <udivmodsi4+0x5c>
 2003ff8:	2005883a 	mov	r2,r4
 2003ffc:	f800283a 	ret
 2004000:	1809883a 	mov	r4,r3
 2004004:	2005883a 	mov	r2,r4
 2004008:	f800283a 	ret
 200400c:	0007883a 	mov	r3,zero
 2004010:	003ff806 	br	2003ff4 <udivmodsi4+0x50>
 2004014:	00800044 	movi	r2,1
 2004018:	0007883a 	mov	r3,zero
 200401c:	003fef06 	br	2003fdc <udivmodsi4+0x38>

02004020 <__divsi3>:
 2004020:	defffe04 	addi	sp,sp,-8
 2004024:	dc000015 	stw	r16,0(sp)
 2004028:	dfc00115 	stw	ra,4(sp)
 200402c:	0021883a 	mov	r16,zero
 2004030:	20000c16 	blt	r4,zero,2004064 <__divsi3+0x44>
 2004034:	000d883a 	mov	r6,zero
 2004038:	28000e16 	blt	r5,zero,2004074 <__divsi3+0x54>
 200403c:	2003fa40 	call	2003fa4 <udivmodsi4>
 2004040:	1007883a 	mov	r3,r2
 2004044:	8005003a 	cmpeq	r2,r16,zero
 2004048:	1000011e 	bne	r2,zero,2004050 <__divsi3+0x30>
 200404c:	00c7c83a 	sub	r3,zero,r3
 2004050:	1805883a 	mov	r2,r3
 2004054:	dfc00117 	ldw	ra,4(sp)
 2004058:	dc000017 	ldw	r16,0(sp)
 200405c:	dec00204 	addi	sp,sp,8
 2004060:	f800283a 	ret
 2004064:	0109c83a 	sub	r4,zero,r4
 2004068:	04000044 	movi	r16,1
 200406c:	000d883a 	mov	r6,zero
 2004070:	283ff20e 	bge	r5,zero,200403c <__divsi3+0x1c>
 2004074:	014bc83a 	sub	r5,zero,r5
 2004078:	8021003a 	cmpeq	r16,r16,zero
 200407c:	003fef06 	br	200403c <__divsi3+0x1c>

02004080 <__modsi3>:
 2004080:	deffff04 	addi	sp,sp,-4
 2004084:	dfc00015 	stw	ra,0(sp)
 2004088:	01800044 	movi	r6,1
 200408c:	2807883a 	mov	r3,r5
 2004090:	20000416 	blt	r4,zero,20040a4 <__modsi3+0x24>
 2004094:	28000c16 	blt	r5,zero,20040c8 <__modsi3+0x48>
 2004098:	dfc00017 	ldw	ra,0(sp)
 200409c:	dec00104 	addi	sp,sp,4
 20040a0:	2003fa41 	jmpi	2003fa4 <udivmodsi4>
 20040a4:	0109c83a 	sub	r4,zero,r4
 20040a8:	28000b16 	blt	r5,zero,20040d8 <__modsi3+0x58>
 20040ac:	180b883a 	mov	r5,r3
 20040b0:	01800044 	movi	r6,1
 20040b4:	2003fa40 	call	2003fa4 <udivmodsi4>
 20040b8:	0085c83a 	sub	r2,zero,r2
 20040bc:	dfc00017 	ldw	ra,0(sp)
 20040c0:	dec00104 	addi	sp,sp,4
 20040c4:	f800283a 	ret
 20040c8:	014bc83a 	sub	r5,zero,r5
 20040cc:	dfc00017 	ldw	ra,0(sp)
 20040d0:	dec00104 	addi	sp,sp,4
 20040d4:	2003fa41 	jmpi	2003fa4 <udivmodsi4>
 20040d8:	0147c83a 	sub	r3,zero,r5
 20040dc:	003ff306 	br	20040ac <__modsi3+0x2c>

020040e0 <__udivsi3>:
 20040e0:	000d883a 	mov	r6,zero
 20040e4:	2003fa41 	jmpi	2003fa4 <udivmodsi4>

020040e8 <__umodsi3>:
 20040e8:	01800044 	movi	r6,1
 20040ec:	2003fa41 	jmpi	2003fa4 <udivmodsi4>

020040f0 <__mulsi3>:
 20040f0:	20000a26 	beq	r4,zero,200411c <__mulsi3+0x2c>
 20040f4:	0007883a 	mov	r3,zero
 20040f8:	2080004c 	andi	r2,r4,1
 20040fc:	1005003a 	cmpeq	r2,r2,zero
 2004100:	2008d07a 	srli	r4,r4,1
 2004104:	1000011e 	bne	r2,zero,200410c <__mulsi3+0x1c>
 2004108:	1947883a 	add	r3,r3,r5
 200410c:	294b883a 	add	r5,r5,r5
 2004110:	203ff91e 	bne	r4,zero,20040f8 <__mulsi3+0x8>
 2004114:	1805883a 	mov	r2,r3
 2004118:	f800283a 	ret
 200411c:	0007883a 	mov	r3,zero
 2004120:	1805883a 	mov	r2,r3
 2004124:	f800283a 	ret

02004128 <__clzsi2>:
 2004128:	00bfffd4 	movui	r2,65535
 200412c:	11000e36 	bltu	r2,r4,2004168 <__clzsi2+0x40>
 2004130:	00803fc4 	movi	r2,255
 2004134:	01400204 	movi	r5,8
 2004138:	0007883a 	mov	r3,zero
 200413c:	11001036 	bltu	r2,r4,2004180 <__clzsi2+0x58>
 2004140:	000b883a 	mov	r5,zero
 2004144:	20c6d83a 	srl	r3,r4,r3
 2004148:	00808074 	movhi	r2,513
 200414c:	1084db04 	addi	r2,r2,4972
 2004150:	1887883a 	add	r3,r3,r2
 2004154:	18800003 	ldbu	r2,0(r3)
 2004158:	00c00804 	movi	r3,32
 200415c:	2885883a 	add	r2,r5,r2
 2004160:	1885c83a 	sub	r2,r3,r2
 2004164:	f800283a 	ret
 2004168:	01400404 	movi	r5,16
 200416c:	00804034 	movhi	r2,256
 2004170:	10bfffc4 	addi	r2,r2,-1
 2004174:	2807883a 	mov	r3,r5
 2004178:	113ff22e 	bgeu	r2,r4,2004144 <__clzsi2+0x1c>
 200417c:	01400604 	movi	r5,24
 2004180:	2807883a 	mov	r3,r5
 2004184:	20c6d83a 	srl	r3,r4,r3
 2004188:	00808074 	movhi	r2,513
 200418c:	1084db04 	addi	r2,r2,4972
 2004190:	1887883a 	add	r3,r3,r2
 2004194:	18800003 	ldbu	r2,0(r3)
 2004198:	00c00804 	movi	r3,32
 200419c:	2885883a 	add	r2,r5,r2
 20041a0:	1885c83a 	sub	r2,r3,r2
 20041a4:	f800283a 	ret

020041a8 <__pack_d>:
 20041a8:	20c00017 	ldw	r3,0(r4)
 20041ac:	defffd04 	addi	sp,sp,-12
 20041b0:	dc000015 	stw	r16,0(sp)
 20041b4:	dc800215 	stw	r18,8(sp)
 20041b8:	dc400115 	stw	r17,4(sp)
 20041bc:	00800044 	movi	r2,1
 20041c0:	22000317 	ldw	r8,12(r4)
 20041c4:	001f883a 	mov	r15,zero
 20041c8:	22400417 	ldw	r9,16(r4)
 20041cc:	24000117 	ldw	r16,4(r4)
 20041d0:	10c0552e 	bgeu	r2,r3,2004328 <__pack_d+0x180>
 20041d4:	00800104 	movi	r2,4
 20041d8:	18804f26 	beq	r3,r2,2004318 <__pack_d+0x170>
 20041dc:	00800084 	movi	r2,2
 20041e0:	18800226 	beq	r3,r2,20041ec <__pack_d+0x44>
 20041e4:	4244b03a 	or	r2,r8,r9
 20041e8:	10001a1e 	bne	r2,zero,2004254 <__pack_d+0xac>
 20041ec:	000d883a 	mov	r6,zero
 20041f0:	000f883a 	mov	r7,zero
 20041f4:	0011883a 	mov	r8,zero
 20041f8:	00800434 	movhi	r2,16
 20041fc:	10bfffc4 	addi	r2,r2,-1
 2004200:	301d883a 	mov	r14,r6
 2004204:	3884703a 	and	r2,r7,r2
 2004208:	400a953a 	slli	r5,r8,20
 200420c:	79bffc2c 	andhi	r6,r15,65520
 2004210:	308cb03a 	or	r6,r6,r2
 2004214:	00e00434 	movhi	r3,32784
 2004218:	18ffffc4 	addi	r3,r3,-1
 200421c:	800497fa 	slli	r2,r16,31
 2004220:	30c6703a 	and	r3,r6,r3
 2004224:	1946b03a 	or	r3,r3,r5
 2004228:	01600034 	movhi	r5,32768
 200422c:	297fffc4 	addi	r5,r5,-1
 2004230:	194a703a 	and	r5,r3,r5
 2004234:	288ab03a 	or	r5,r5,r2
 2004238:	2807883a 	mov	r3,r5
 200423c:	7005883a 	mov	r2,r14
 2004240:	dc800217 	ldw	r18,8(sp)
 2004244:	dc400117 	ldw	r17,4(sp)
 2004248:	dc000017 	ldw	r16,0(sp)
 200424c:	dec00304 	addi	sp,sp,12
 2004250:	f800283a 	ret
 2004254:	21000217 	ldw	r4,8(r4)
 2004258:	00bf0084 	movi	r2,-1022
 200425c:	20803f16 	blt	r4,r2,200435c <__pack_d+0x1b4>
 2004260:	0080ffc4 	movi	r2,1023
 2004264:	11002c16 	blt	r2,r4,2004318 <__pack_d+0x170>
 2004268:	00803fc4 	movi	r2,255
 200426c:	408c703a 	and	r6,r8,r2
 2004270:	00802004 	movi	r2,128
 2004274:	0007883a 	mov	r3,zero
 2004278:	000f883a 	mov	r7,zero
 200427c:	2280ffc4 	addi	r10,r4,1023
 2004280:	30801e26 	beq	r6,r2,20042fc <__pack_d+0x154>
 2004284:	00801fc4 	movi	r2,127
 2004288:	4089883a 	add	r4,r8,r2
 200428c:	220d803a 	cmpltu	r6,r4,r8
 2004290:	324d883a 	add	r6,r6,r9
 2004294:	2011883a 	mov	r8,r4
 2004298:	3013883a 	mov	r9,r6
 200429c:	00880034 	movhi	r2,8192
 20042a0:	10bfffc4 	addi	r2,r2,-1
 20042a4:	12400d36 	bltu	r2,r9,20042dc <__pack_d+0x134>
 20042a8:	4804963a 	slli	r2,r9,24
 20042ac:	400cd23a 	srli	r6,r8,8
 20042b0:	480ed23a 	srli	r7,r9,8
 20042b4:	013fffc4 	movi	r4,-1
 20042b8:	118cb03a 	or	r6,r2,r6
 20042bc:	01400434 	movhi	r5,16
 20042c0:	297fffc4 	addi	r5,r5,-1
 20042c4:	3104703a 	and	r2,r6,r4
 20042c8:	3946703a 	and	r3,r7,r5
 20042cc:	5201ffcc 	andi	r8,r10,2047
 20042d0:	100d883a 	mov	r6,r2
 20042d4:	180f883a 	mov	r7,r3
 20042d8:	003fc706 	br	20041f8 <__pack_d+0x50>
 20042dc:	480897fa 	slli	r4,r9,31
 20042e0:	4004d07a 	srli	r2,r8,1
 20042e4:	4806d07a 	srli	r3,r9,1
 20042e8:	52800044 	addi	r10,r10,1
 20042ec:	2084b03a 	or	r2,r4,r2
 20042f0:	1011883a 	mov	r8,r2
 20042f4:	1813883a 	mov	r9,r3
 20042f8:	003feb06 	br	20042a8 <__pack_d+0x100>
 20042fc:	383fe11e 	bne	r7,zero,2004284 <__pack_d+0xdc>
 2004300:	01004004 	movi	r4,256
 2004304:	4104703a 	and	r2,r8,r4
 2004308:	10c4b03a 	or	r2,r2,r3
 200430c:	103fe326 	beq	r2,zero,200429c <__pack_d+0xf4>
 2004310:	3005883a 	mov	r2,r6
 2004314:	003fdc06 	br	2004288 <__pack_d+0xe0>
 2004318:	000d883a 	mov	r6,zero
 200431c:	000f883a 	mov	r7,zero
 2004320:	0201ffc4 	movi	r8,2047
 2004324:	003fb406 	br	20041f8 <__pack_d+0x50>
 2004328:	0005883a 	mov	r2,zero
 200432c:	00c00234 	movhi	r3,8
 2004330:	408cb03a 	or	r6,r8,r2
 2004334:	48ceb03a 	or	r7,r9,r3
 2004338:	013fffc4 	movi	r4,-1
 200433c:	01400434 	movhi	r5,16
 2004340:	297fffc4 	addi	r5,r5,-1
 2004344:	3104703a 	and	r2,r6,r4
 2004348:	3946703a 	and	r3,r7,r5
 200434c:	100d883a 	mov	r6,r2
 2004350:	180f883a 	mov	r7,r3
 2004354:	0201ffc4 	movi	r8,2047
 2004358:	003fa706 	br	20041f8 <__pack_d+0x50>
 200435c:	1109c83a 	sub	r4,r2,r4
 2004360:	00800e04 	movi	r2,56
 2004364:	11004316 	blt	r2,r4,2004474 <__pack_d+0x2cc>
 2004368:	21fff804 	addi	r7,r4,-32
 200436c:	38004516 	blt	r7,zero,2004484 <__pack_d+0x2dc>
 2004370:	49d8d83a 	srl	r12,r9,r7
 2004374:	001b883a 	mov	r13,zero
 2004378:	0023883a 	mov	r17,zero
 200437c:	01400044 	movi	r5,1
 2004380:	0025883a 	mov	r18,zero
 2004384:	38004716 	blt	r7,zero,20044a4 <__pack_d+0x2fc>
 2004388:	29d6983a 	sll	r11,r5,r7
 200438c:	0015883a 	mov	r10,zero
 2004390:	00bfffc4 	movi	r2,-1
 2004394:	5089883a 	add	r4,r10,r2
 2004398:	588b883a 	add	r5,r11,r2
 200439c:	228d803a 	cmpltu	r6,r4,r10
 20043a0:	314b883a 	add	r5,r6,r5
 20043a4:	4104703a 	and	r2,r8,r4
 20043a8:	4946703a 	and	r3,r9,r5
 20043ac:	10c4b03a 	or	r2,r2,r3
 20043b0:	10000226 	beq	r2,zero,20043bc <__pack_d+0x214>
 20043b4:	04400044 	movi	r17,1
 20043b8:	0025883a 	mov	r18,zero
 20043bc:	00803fc4 	movi	r2,255
 20043c0:	644eb03a 	or	r7,r12,r17
 20043c4:	3892703a 	and	r9,r7,r2
 20043c8:	00802004 	movi	r2,128
 20043cc:	6c90b03a 	or	r8,r13,r18
 20043d0:	0015883a 	mov	r10,zero
 20043d4:	48801626 	beq	r9,r2,2004430 <__pack_d+0x288>
 20043d8:	01001fc4 	movi	r4,127
 20043dc:	3905883a 	add	r2,r7,r4
 20043e0:	11cd803a 	cmpltu	r6,r2,r7
 20043e4:	320d883a 	add	r6,r6,r8
 20043e8:	100f883a 	mov	r7,r2
 20043ec:	00840034 	movhi	r2,4096
 20043f0:	10bfffc4 	addi	r2,r2,-1
 20043f4:	3011883a 	mov	r8,r6
 20043f8:	0007883a 	mov	r3,zero
 20043fc:	11801b36 	bltu	r2,r6,200446c <__pack_d+0x2c4>
 2004400:	4004963a 	slli	r2,r8,24
 2004404:	3808d23a 	srli	r4,r7,8
 2004408:	400ad23a 	srli	r5,r8,8
 200440c:	1813883a 	mov	r9,r3
 2004410:	1108b03a 	or	r4,r2,r4
 2004414:	00bfffc4 	movi	r2,-1
 2004418:	00c00434 	movhi	r3,16
 200441c:	18ffffc4 	addi	r3,r3,-1
 2004420:	208c703a 	and	r6,r4,r2
 2004424:	28ce703a 	and	r7,r5,r3
 2004428:	4a01ffcc 	andi	r8,r9,2047
 200442c:	003f7206 	br	20041f8 <__pack_d+0x50>
 2004430:	503fe91e 	bne	r10,zero,20043d8 <__pack_d+0x230>
 2004434:	01004004 	movi	r4,256
 2004438:	3904703a 	and	r2,r7,r4
 200443c:	0007883a 	mov	r3,zero
 2004440:	10c4b03a 	or	r2,r2,r3
 2004444:	10000626 	beq	r2,zero,2004460 <__pack_d+0x2b8>
 2004448:	3a45883a 	add	r2,r7,r9
 200444c:	11cd803a 	cmpltu	r6,r2,r7
 2004450:	320d883a 	add	r6,r6,r8
 2004454:	100f883a 	mov	r7,r2
 2004458:	3011883a 	mov	r8,r6
 200445c:	0007883a 	mov	r3,zero
 2004460:	00840034 	movhi	r2,4096
 2004464:	10bfffc4 	addi	r2,r2,-1
 2004468:	123fe52e 	bgeu	r2,r8,2004400 <__pack_d+0x258>
 200446c:	00c00044 	movi	r3,1
 2004470:	003fe306 	br	2004400 <__pack_d+0x258>
 2004474:	0009883a 	mov	r4,zero
 2004478:	0013883a 	mov	r9,zero
 200447c:	000b883a 	mov	r5,zero
 2004480:	003fe406 	br	2004414 <__pack_d+0x26c>
 2004484:	4a47883a 	add	r3,r9,r9
 2004488:	008007c4 	movi	r2,31
 200448c:	1105c83a 	sub	r2,r2,r4
 2004490:	1886983a 	sll	r3,r3,r2
 2004494:	4118d83a 	srl	r12,r8,r4
 2004498:	491ad83a 	srl	r13,r9,r4
 200449c:	1b18b03a 	or	r12,r3,r12
 20044a0:	003fb506 	br	2004378 <__pack_d+0x1d0>
 20044a4:	2806d07a 	srli	r3,r5,1
 20044a8:	008007c4 	movi	r2,31
 20044ac:	1105c83a 	sub	r2,r2,r4
 20044b0:	1896d83a 	srl	r11,r3,r2
 20044b4:	2914983a 	sll	r10,r5,r4
 20044b8:	003fb506 	br	2004390 <__pack_d+0x1e8>

020044bc <__unpack_d>:
 20044bc:	20c00117 	ldw	r3,4(r4)
 20044c0:	22400017 	ldw	r9,0(r4)
 20044c4:	00800434 	movhi	r2,16
 20044c8:	10bfffc4 	addi	r2,r2,-1
 20044cc:	1808d53a 	srli	r4,r3,20
 20044d0:	180cd7fa 	srli	r6,r3,31
 20044d4:	1894703a 	and	r10,r3,r2
 20044d8:	2201ffcc 	andi	r8,r4,2047
 20044dc:	281b883a 	mov	r13,r5
 20044e0:	4817883a 	mov	r11,r9
 20044e4:	29800115 	stw	r6,4(r5)
 20044e8:	5019883a 	mov	r12,r10
 20044ec:	40001e1e 	bne	r8,zero,2004568 <__unpack_d+0xac>
 20044f0:	4a84b03a 	or	r2,r9,r10
 20044f4:	10001926 	beq	r2,zero,200455c <__unpack_d+0xa0>
 20044f8:	4804d63a 	srli	r2,r9,24
 20044fc:	500c923a 	slli	r6,r10,8
 2004500:	013f0084 	movi	r4,-1022
 2004504:	00c40034 	movhi	r3,4096
 2004508:	18ffffc4 	addi	r3,r3,-1
 200450c:	118cb03a 	or	r6,r2,r6
 2004510:	008000c4 	movi	r2,3
 2004514:	480a923a 	slli	r5,r9,8
 2004518:	68800015 	stw	r2,0(r13)
 200451c:	69000215 	stw	r4,8(r13)
 2004520:	19800b36 	bltu	r3,r6,2004550 <__unpack_d+0x94>
 2004524:	200f883a 	mov	r7,r4
 2004528:	1811883a 	mov	r8,r3
 200452c:	2945883a 	add	r2,r5,r5
 2004530:	1149803a 	cmpltu	r4,r2,r5
 2004534:	3187883a 	add	r3,r6,r6
 2004538:	20c9883a 	add	r4,r4,r3
 200453c:	100b883a 	mov	r5,r2
 2004540:	200d883a 	mov	r6,r4
 2004544:	39ffffc4 	addi	r7,r7,-1
 2004548:	413ff82e 	bgeu	r8,r4,200452c <__unpack_d+0x70>
 200454c:	69c00215 	stw	r7,8(r13)
 2004550:	69800415 	stw	r6,16(r13)
 2004554:	69400315 	stw	r5,12(r13)
 2004558:	f800283a 	ret
 200455c:	00800084 	movi	r2,2
 2004560:	28800015 	stw	r2,0(r5)
 2004564:	f800283a 	ret
 2004568:	0081ffc4 	movi	r2,2047
 200456c:	40800f26 	beq	r8,r2,20045ac <__unpack_d+0xf0>
 2004570:	480cd63a 	srli	r6,r9,24
 2004574:	5006923a 	slli	r3,r10,8
 2004578:	4804923a 	slli	r2,r9,8
 200457c:	0009883a 	mov	r4,zero
 2004580:	30c6b03a 	or	r3,r6,r3
 2004584:	01440034 	movhi	r5,4096
 2004588:	110cb03a 	or	r6,r2,r4
 200458c:	423f0044 	addi	r8,r8,-1023
 2004590:	194eb03a 	or	r7,r3,r5
 2004594:	008000c4 	movi	r2,3
 2004598:	69c00415 	stw	r7,16(r13)
 200459c:	6a000215 	stw	r8,8(r13)
 20045a0:	68800015 	stw	r2,0(r13)
 20045a4:	69800315 	stw	r6,12(r13)
 20045a8:	f800283a 	ret
 20045ac:	4a84b03a 	or	r2,r9,r10
 20045b0:	1000031e 	bne	r2,zero,20045c0 <__unpack_d+0x104>
 20045b4:	00800104 	movi	r2,4
 20045b8:	28800015 	stw	r2,0(r5)
 20045bc:	f800283a 	ret
 20045c0:	0009883a 	mov	r4,zero
 20045c4:	01400234 	movhi	r5,8
 20045c8:	4904703a 	and	r2,r9,r4
 20045cc:	5146703a 	and	r3,r10,r5
 20045d0:	10c4b03a 	or	r2,r2,r3
 20045d4:	10000526 	beq	r2,zero,20045ec <__unpack_d+0x130>
 20045d8:	00800044 	movi	r2,1
 20045dc:	68800015 	stw	r2,0(r13)
 20045e0:	6b000415 	stw	r12,16(r13)
 20045e4:	6ac00315 	stw	r11,12(r13)
 20045e8:	f800283a 	ret
 20045ec:	68000015 	stw	zero,0(r13)
 20045f0:	003ffb06 	br	20045e0 <__unpack_d+0x124>

020045f4 <__fpcmp_parts_d>:
 20045f4:	21800017 	ldw	r6,0(r4)
 20045f8:	00c00044 	movi	r3,1
 20045fc:	19800a2e 	bgeu	r3,r6,2004628 <__fpcmp_parts_d+0x34>
 2004600:	28800017 	ldw	r2,0(r5)
 2004604:	1880082e 	bgeu	r3,r2,2004628 <__fpcmp_parts_d+0x34>
 2004608:	00c00104 	movi	r3,4
 200460c:	30c02626 	beq	r6,r3,20046a8 <__fpcmp_parts_d+0xb4>
 2004610:	10c02226 	beq	r2,r3,200469c <__fpcmp_parts_d+0xa8>
 2004614:	00c00084 	movi	r3,2
 2004618:	30c00526 	beq	r6,r3,2004630 <__fpcmp_parts_d+0x3c>
 200461c:	10c0071e 	bne	r2,r3,200463c <__fpcmp_parts_d+0x48>
 2004620:	20800117 	ldw	r2,4(r4)
 2004624:	1000091e 	bne	r2,zero,200464c <__fpcmp_parts_d+0x58>
 2004628:	00800044 	movi	r2,1
 200462c:	f800283a 	ret
 2004630:	10c01a1e 	bne	r2,r3,200469c <__fpcmp_parts_d+0xa8>
 2004634:	0005883a 	mov	r2,zero
 2004638:	f800283a 	ret
 200463c:	22000117 	ldw	r8,4(r4)
 2004640:	28800117 	ldw	r2,4(r5)
 2004644:	40800326 	beq	r8,r2,2004654 <__fpcmp_parts_d+0x60>
 2004648:	403ff726 	beq	r8,zero,2004628 <__fpcmp_parts_d+0x34>
 200464c:	00bfffc4 	movi	r2,-1
 2004650:	f800283a 	ret
 2004654:	20c00217 	ldw	r3,8(r4)
 2004658:	28800217 	ldw	r2,8(r5)
 200465c:	10fffa16 	blt	r2,r3,2004648 <__fpcmp_parts_d+0x54>
 2004660:	18800916 	blt	r3,r2,2004688 <__fpcmp_parts_d+0x94>
 2004664:	21c00417 	ldw	r7,16(r4)
 2004668:	28c00417 	ldw	r3,16(r5)
 200466c:	21800317 	ldw	r6,12(r4)
 2004670:	28800317 	ldw	r2,12(r5)
 2004674:	19fff436 	bltu	r3,r7,2004648 <__fpcmp_parts_d+0x54>
 2004678:	38c00526 	beq	r7,r3,2004690 <__fpcmp_parts_d+0x9c>
 200467c:	38c00236 	bltu	r7,r3,2004688 <__fpcmp_parts_d+0x94>
 2004680:	19ffec1e 	bne	r3,r7,2004634 <__fpcmp_parts_d+0x40>
 2004684:	30bfeb2e 	bgeu	r6,r2,2004634 <__fpcmp_parts_d+0x40>
 2004688:	403fe71e 	bne	r8,zero,2004628 <__fpcmp_parts_d+0x34>
 200468c:	003fef06 	br	200464c <__fpcmp_parts_d+0x58>
 2004690:	11bffa2e 	bgeu	r2,r6,200467c <__fpcmp_parts_d+0x88>
 2004694:	403fe426 	beq	r8,zero,2004628 <__fpcmp_parts_d+0x34>
 2004698:	003fec06 	br	200464c <__fpcmp_parts_d+0x58>
 200469c:	28800117 	ldw	r2,4(r5)
 20046a0:	103fe11e 	bne	r2,zero,2004628 <__fpcmp_parts_d+0x34>
 20046a4:	003fe906 	br	200464c <__fpcmp_parts_d+0x58>
 20046a8:	11bfdd1e 	bne	r2,r6,2004620 <__fpcmp_parts_d+0x2c>
 20046ac:	28c00117 	ldw	r3,4(r5)
 20046b0:	20800117 	ldw	r2,4(r4)
 20046b4:	1885c83a 	sub	r2,r3,r2
 20046b8:	f800283a 	ret

020046bc <memset>:
 20046bc:	008000c4 	movi	r2,3
 20046c0:	29403fcc 	andi	r5,r5,255
 20046c4:	2007883a 	mov	r3,r4
 20046c8:	1180022e 	bgeu	r2,r6,20046d4 <memset+0x18>
 20046cc:	2084703a 	and	r2,r4,r2
 20046d0:	10000826 	beq	r2,zero,20046f4 <memset+0x38>
 20046d4:	30000526 	beq	r6,zero,20046ec <memset+0x30>
 20046d8:	2805883a 	mov	r2,r5
 20046dc:	30cd883a 	add	r6,r6,r3
 20046e0:	18800005 	stb	r2,0(r3)
 20046e4:	18c00044 	addi	r3,r3,1
 20046e8:	19bffd1e 	bne	r3,r6,20046e0 <memset+0x24>
 20046ec:	2005883a 	mov	r2,r4
 20046f0:	f800283a 	ret
 20046f4:	2804923a 	slli	r2,r5,8
 20046f8:	020003c4 	movi	r8,15
 20046fc:	200f883a 	mov	r7,r4
 2004700:	2884b03a 	or	r2,r5,r2
 2004704:	1006943a 	slli	r3,r2,16
 2004708:	10c6b03a 	or	r3,r2,r3
 200470c:	41800a2e 	bgeu	r8,r6,2004738 <memset+0x7c>
 2004710:	4005883a 	mov	r2,r8
 2004714:	31bffc04 	addi	r6,r6,-16
 2004718:	38c00015 	stw	r3,0(r7)
 200471c:	38c00115 	stw	r3,4(r7)
 2004720:	38c00215 	stw	r3,8(r7)
 2004724:	38c00315 	stw	r3,12(r7)
 2004728:	39c00404 	addi	r7,r7,16
 200472c:	11bff936 	bltu	r2,r6,2004714 <memset+0x58>
 2004730:	008000c4 	movi	r2,3
 2004734:	1180052e 	bgeu	r2,r6,200474c <memset+0x90>
 2004738:	31bfff04 	addi	r6,r6,-4
 200473c:	008000c4 	movi	r2,3
 2004740:	38c00015 	stw	r3,0(r7)
 2004744:	39c00104 	addi	r7,r7,4
 2004748:	11bffb36 	bltu	r2,r6,2004738 <memset+0x7c>
 200474c:	3807883a 	mov	r3,r7
 2004750:	003fe006 	br	20046d4 <memset+0x18>

02004754 <printf>:
 2004754:	defffb04 	addi	sp,sp,-20
 2004758:	dfc00115 	stw	ra,4(sp)
 200475c:	d9400215 	stw	r5,8(sp)
 2004760:	d9800315 	stw	r6,12(sp)
 2004764:	d9c00415 	stw	r7,16(sp)
 2004768:	00808074 	movhi	r2,513
 200476c:	108d6704 	addi	r2,r2,13724
 2004770:	10c00017 	ldw	r3,0(r2)
 2004774:	200b883a 	mov	r5,r4
 2004778:	d8800204 	addi	r2,sp,8
 200477c:	19000217 	ldw	r4,8(r3)
 2004780:	100d883a 	mov	r6,r2
 2004784:	d8800015 	stw	r2,0(sp)
 2004788:	20069580 	call	2006958 <__vfprintf_internal>
 200478c:	dfc00117 	ldw	ra,4(sp)
 2004790:	dec00504 	addi	sp,sp,20
 2004794:	f800283a 	ret

02004798 <_printf_r>:
 2004798:	defffc04 	addi	sp,sp,-16
 200479c:	dfc00115 	stw	ra,4(sp)
 20047a0:	d9800215 	stw	r6,8(sp)
 20047a4:	d9c00315 	stw	r7,12(sp)
 20047a8:	280d883a 	mov	r6,r5
 20047ac:	21400217 	ldw	r5,8(r4)
 20047b0:	d8c00204 	addi	r3,sp,8
 20047b4:	180f883a 	mov	r7,r3
 20047b8:	d8c00015 	stw	r3,0(sp)
 20047bc:	2004a940 	call	2004a94 <___vfprintf_internal_r>
 20047c0:	dfc00117 	ldw	ra,4(sp)
 20047c4:	dec00404 	addi	sp,sp,16
 20047c8:	f800283a 	ret

020047cc <_puts_r>:
 20047cc:	defff604 	addi	sp,sp,-40
 20047d0:	dc400715 	stw	r17,28(sp)
 20047d4:	2023883a 	mov	r17,r4
 20047d8:	2809883a 	mov	r4,r5
 20047dc:	dfc00915 	stw	ra,36(sp)
 20047e0:	dcc00815 	stw	r19,32(sp)
 20047e4:	2827883a 	mov	r19,r5
 20047e8:	20049c80 	call	20049c8 <strlen>
 20047ec:	89400217 	ldw	r5,8(r17)
 20047f0:	00c08074 	movhi	r3,513
 20047f4:	18c4ba04 	addi	r3,r3,4840
 20047f8:	01c00044 	movi	r7,1
 20047fc:	12000044 	addi	r8,r2,1
 2004800:	d8c00515 	stw	r3,20(sp)
 2004804:	d9c00615 	stw	r7,24(sp)
 2004808:	d8c00304 	addi	r3,sp,12
 200480c:	01c00084 	movi	r7,2
 2004810:	8809883a 	mov	r4,r17
 2004814:	d80d883a 	mov	r6,sp
 2004818:	d8c00015 	stw	r3,0(sp)
 200481c:	dcc00315 	stw	r19,12(sp)
 2004820:	da000215 	stw	r8,8(sp)
 2004824:	d9c00115 	stw	r7,4(sp)
 2004828:	d8800415 	stw	r2,16(sp)
 200482c:	2008c140 	call	2008c14 <__sfvwrite_r>
 2004830:	00ffffc4 	movi	r3,-1
 2004834:	10000626 	beq	r2,zero,2004850 <_puts_r+0x84>
 2004838:	1805883a 	mov	r2,r3
 200483c:	dfc00917 	ldw	ra,36(sp)
 2004840:	dcc00817 	ldw	r19,32(sp)
 2004844:	dc400717 	ldw	r17,28(sp)
 2004848:	dec00a04 	addi	sp,sp,40
 200484c:	f800283a 	ret
 2004850:	00c00284 	movi	r3,10
 2004854:	1805883a 	mov	r2,r3
 2004858:	dfc00917 	ldw	ra,36(sp)
 200485c:	dcc00817 	ldw	r19,32(sp)
 2004860:	dc400717 	ldw	r17,28(sp)
 2004864:	dec00a04 	addi	sp,sp,40
 2004868:	f800283a 	ret

0200486c <puts>:
 200486c:	00808074 	movhi	r2,513
 2004870:	108d6704 	addi	r2,r2,13724
 2004874:	200b883a 	mov	r5,r4
 2004878:	11000017 	ldw	r4,0(r2)
 200487c:	20047cc1 	jmpi	20047cc <_puts_r>

02004880 <strcmp>:
 2004880:	2144b03a 	or	r2,r4,r5
 2004884:	108000cc 	andi	r2,r2,3
 2004888:	10001d1e 	bne	r2,zero,2004900 <strcmp+0x80>
 200488c:	200f883a 	mov	r7,r4
 2004890:	28800017 	ldw	r2,0(r5)
 2004894:	21000017 	ldw	r4,0(r4)
 2004898:	280d883a 	mov	r6,r5
 200489c:	2080161e 	bne	r4,r2,20048f8 <strcmp+0x78>
 20048a0:	023fbff4 	movhi	r8,65279
 20048a4:	423fbfc4 	addi	r8,r8,-257
 20048a8:	2207883a 	add	r3,r4,r8
 20048ac:	01602074 	movhi	r5,32897
 20048b0:	29602004 	addi	r5,r5,-32640
 20048b4:	1946703a 	and	r3,r3,r5
 20048b8:	0104303a 	nor	r2,zero,r4
 20048bc:	10c4703a 	and	r2,r2,r3
 20048c0:	10001c1e 	bne	r2,zero,2004934 <strcmp+0xb4>
 20048c4:	4013883a 	mov	r9,r8
 20048c8:	2811883a 	mov	r8,r5
 20048cc:	00000106 	br	20048d4 <strcmp+0x54>
 20048d0:	1800181e 	bne	r3,zero,2004934 <strcmp+0xb4>
 20048d4:	39c00104 	addi	r7,r7,4
 20048d8:	39000017 	ldw	r4,0(r7)
 20048dc:	31800104 	addi	r6,r6,4
 20048e0:	31400017 	ldw	r5,0(r6)
 20048e4:	2245883a 	add	r2,r4,r9
 20048e8:	1204703a 	and	r2,r2,r8
 20048ec:	0106303a 	nor	r3,zero,r4
 20048f0:	1886703a 	and	r3,r3,r2
 20048f4:	217ff626 	beq	r4,r5,20048d0 <strcmp+0x50>
 20048f8:	3809883a 	mov	r4,r7
 20048fc:	300b883a 	mov	r5,r6
 2004900:	20c00007 	ldb	r3,0(r4)
 2004904:	1800051e 	bne	r3,zero,200491c <strcmp+0x9c>
 2004908:	00000606 	br	2004924 <strcmp+0xa4>
 200490c:	21000044 	addi	r4,r4,1
 2004910:	20c00007 	ldb	r3,0(r4)
 2004914:	29400044 	addi	r5,r5,1
 2004918:	18000226 	beq	r3,zero,2004924 <strcmp+0xa4>
 200491c:	28800007 	ldb	r2,0(r5)
 2004920:	18bffa26 	beq	r3,r2,200490c <strcmp+0x8c>
 2004924:	20c00003 	ldbu	r3,0(r4)
 2004928:	28800003 	ldbu	r2,0(r5)
 200492c:	1885c83a 	sub	r2,r3,r2
 2004930:	f800283a 	ret
 2004934:	0005883a 	mov	r2,zero
 2004938:	f800283a 	ret

0200493c <strcpy>:
 200493c:	2904b03a 	or	r2,r5,r4
 2004940:	108000cc 	andi	r2,r2,3
 2004944:	10000826 	beq	r2,zero,2004968 <strcpy+0x2c>
 2004948:	2007883a 	mov	r3,r4
 200494c:	28800003 	ldbu	r2,0(r5)
 2004950:	29400044 	addi	r5,r5,1
 2004954:	18800005 	stb	r2,0(r3)
 2004958:	18c00044 	addi	r3,r3,1
 200495c:	103ffb1e 	bne	r2,zero,200494c <strcpy+0x10>
 2004960:	2005883a 	mov	r2,r4
 2004964:	f800283a 	ret
 2004968:	29800017 	ldw	r6,0(r5)
 200496c:	023fbff4 	movhi	r8,65279
 2004970:	423fbfc4 	addi	r8,r8,-257
 2004974:	02a02074 	movhi	r10,32897
 2004978:	52a02004 	addi	r10,r10,-32640
 200497c:	3205883a 	add	r2,r6,r8
 2004980:	0186303a 	nor	r3,zero,r6
 2004984:	10c4703a 	and	r2,r2,r3
 2004988:	1284703a 	and	r2,r2,r10
 200498c:	200f883a 	mov	r7,r4
 2004990:	10000b1e 	bne	r2,zero,20049c0 <strcpy+0x84>
 2004994:	4013883a 	mov	r9,r8
 2004998:	5011883a 	mov	r8,r10
 200499c:	39800015 	stw	r6,0(r7)
 20049a0:	29400104 	addi	r5,r5,4
 20049a4:	29800017 	ldw	r6,0(r5)
 20049a8:	39c00104 	addi	r7,r7,4
 20049ac:	3245883a 	add	r2,r6,r9
 20049b0:	0186303a 	nor	r3,zero,r6
 20049b4:	10c4703a 	and	r2,r2,r3
 20049b8:	1204703a 	and	r2,r2,r8
 20049bc:	103ff726 	beq	r2,zero,200499c <strcpy+0x60>
 20049c0:	3807883a 	mov	r3,r7
 20049c4:	003fe106 	br	200494c <strcpy+0x10>

020049c8 <strlen>:
 20049c8:	208000cc 	andi	r2,r4,3
 20049cc:	2011883a 	mov	r8,r4
 20049d0:	1000161e 	bne	r2,zero,2004a2c <strlen+0x64>
 20049d4:	20c00017 	ldw	r3,0(r4)
 20049d8:	017fbff4 	movhi	r5,65279
 20049dc:	297fbfc4 	addi	r5,r5,-257
 20049e0:	01e02074 	movhi	r7,32897
 20049e4:	39e02004 	addi	r7,r7,-32640
 20049e8:	1945883a 	add	r2,r3,r5
 20049ec:	11c4703a 	and	r2,r2,r7
 20049f0:	00c6303a 	nor	r3,zero,r3
 20049f4:	1886703a 	and	r3,r3,r2
 20049f8:	18000c1e 	bne	r3,zero,2004a2c <strlen+0x64>
 20049fc:	280d883a 	mov	r6,r5
 2004a00:	380b883a 	mov	r5,r7
 2004a04:	21000104 	addi	r4,r4,4
 2004a08:	20800017 	ldw	r2,0(r4)
 2004a0c:	1187883a 	add	r3,r2,r6
 2004a10:	1946703a 	and	r3,r3,r5
 2004a14:	0084303a 	nor	r2,zero,r2
 2004a18:	10c4703a 	and	r2,r2,r3
 2004a1c:	103ff926 	beq	r2,zero,2004a04 <strlen+0x3c>
 2004a20:	20800007 	ldb	r2,0(r4)
 2004a24:	10000326 	beq	r2,zero,2004a34 <strlen+0x6c>
 2004a28:	21000044 	addi	r4,r4,1
 2004a2c:	20800007 	ldb	r2,0(r4)
 2004a30:	103ffd1e 	bne	r2,zero,2004a28 <strlen+0x60>
 2004a34:	2205c83a 	sub	r2,r4,r8
 2004a38:	f800283a 	ret

02004a3c <__sprint_r>:
 2004a3c:	30800217 	ldw	r2,8(r6)
 2004a40:	defffe04 	addi	sp,sp,-8
 2004a44:	dc000015 	stw	r16,0(sp)
 2004a48:	dfc00115 	stw	ra,4(sp)
 2004a4c:	3021883a 	mov	r16,r6
 2004a50:	0007883a 	mov	r3,zero
 2004a54:	1000061e 	bne	r2,zero,2004a70 <__sprint_r+0x34>
 2004a58:	1805883a 	mov	r2,r3
 2004a5c:	30000115 	stw	zero,4(r6)
 2004a60:	dfc00117 	ldw	ra,4(sp)
 2004a64:	dc000017 	ldw	r16,0(sp)
 2004a68:	dec00204 	addi	sp,sp,8
 2004a6c:	f800283a 	ret
 2004a70:	2008c140 	call	2008c14 <__sfvwrite_r>
 2004a74:	1007883a 	mov	r3,r2
 2004a78:	1805883a 	mov	r2,r3
 2004a7c:	80000115 	stw	zero,4(r16)
 2004a80:	80000215 	stw	zero,8(r16)
 2004a84:	dfc00117 	ldw	ra,4(sp)
 2004a88:	dc000017 	ldw	r16,0(sp)
 2004a8c:	dec00204 	addi	sp,sp,8
 2004a90:	f800283a 	ret

02004a94 <___vfprintf_internal_r>:
 2004a94:	defea404 	addi	sp,sp,-1392
 2004a98:	dd815815 	stw	r22,1376(sp)
 2004a9c:	dc015215 	stw	r16,1352(sp)
 2004aa0:	d9c15115 	stw	r7,1348(sp)
 2004aa4:	dfc15b15 	stw	ra,1388(sp)
 2004aa8:	df015a15 	stw	fp,1384(sp)
 2004aac:	ddc15915 	stw	r23,1380(sp)
 2004ab0:	dd415715 	stw	r21,1372(sp)
 2004ab4:	dd015615 	stw	r20,1368(sp)
 2004ab8:	dcc15515 	stw	r19,1364(sp)
 2004abc:	dc815415 	stw	r18,1360(sp)
 2004ac0:	dc415315 	stw	r17,1356(sp)
 2004ac4:	282d883a 	mov	r22,r5
 2004ac8:	3021883a 	mov	r16,r6
 2004acc:	d9014f15 	stw	r4,1340(sp)
 2004ad0:	20092380 	call	2009238 <_localeconv_r>
 2004ad4:	10800017 	ldw	r2,0(r2)
 2004ad8:	d9c15117 	ldw	r7,1348(sp)
 2004adc:	d8814915 	stw	r2,1316(sp)
 2004ae0:	d8814f17 	ldw	r2,1340(sp)
 2004ae4:	10000226 	beq	r2,zero,2004af0 <___vfprintf_internal_r+0x5c>
 2004ae8:	10800e17 	ldw	r2,56(r2)
 2004aec:	10020d26 	beq	r2,zero,2005324 <___vfprintf_internal_r+0x890>
 2004af0:	b080030b 	ldhu	r2,12(r22)
 2004af4:	1080020c 	andi	r2,r2,8
 2004af8:	10020e26 	beq	r2,zero,2005334 <___vfprintf_internal_r+0x8a0>
 2004afc:	b0800417 	ldw	r2,16(r22)
 2004b00:	10020c26 	beq	r2,zero,2005334 <___vfprintf_internal_r+0x8a0>
 2004b04:	b200030b 	ldhu	r8,12(r22)
 2004b08:	00800284 	movi	r2,10
 2004b0c:	40c0068c 	andi	r3,r8,26
 2004b10:	18802f1e 	bne	r3,r2,2004bd0 <___vfprintf_internal_r+0x13c>
 2004b14:	b080038f 	ldh	r2,14(r22)
 2004b18:	10002d16 	blt	r2,zero,2004bd0 <___vfprintf_internal_r+0x13c>
 2004b1c:	b240038b 	ldhu	r9,14(r22)
 2004b20:	b2800717 	ldw	r10,28(r22)
 2004b24:	b2c00917 	ldw	r11,36(r22)
 2004b28:	d9014f17 	ldw	r4,1340(sp)
 2004b2c:	dc402904 	addi	r17,sp,164
 2004b30:	d8804004 	addi	r2,sp,256
 2004b34:	00c10004 	movi	r3,1024
 2004b38:	423fff4c 	andi	r8,r8,65533
 2004b3c:	800d883a 	mov	r6,r16
 2004b40:	880b883a 	mov	r5,r17
 2004b44:	da002c0d 	sth	r8,176(sp)
 2004b48:	da402c8d 	sth	r9,178(sp)
 2004b4c:	da803015 	stw	r10,192(sp)
 2004b50:	dac03215 	stw	r11,200(sp)
 2004b54:	d8802d15 	stw	r2,180(sp)
 2004b58:	d8c02e15 	stw	r3,184(sp)
 2004b5c:	d8802915 	stw	r2,164(sp)
 2004b60:	d8c02b15 	stw	r3,172(sp)
 2004b64:	d8002f15 	stw	zero,188(sp)
 2004b68:	2004a940 	call	2004a94 <___vfprintf_internal_r>
 2004b6c:	d8814b15 	stw	r2,1324(sp)
 2004b70:	10000416 	blt	r2,zero,2004b84 <___vfprintf_internal_r+0xf0>
 2004b74:	d9014f17 	ldw	r4,1340(sp)
 2004b78:	880b883a 	mov	r5,r17
 2004b7c:	20082b00 	call	20082b0 <_fflush_r>
 2004b80:	1002321e 	bne	r2,zero,200544c <___vfprintf_internal_r+0x9b8>
 2004b84:	d8802c0b 	ldhu	r2,176(sp)
 2004b88:	1080100c 	andi	r2,r2,64
 2004b8c:	10000326 	beq	r2,zero,2004b9c <___vfprintf_internal_r+0x108>
 2004b90:	b080030b 	ldhu	r2,12(r22)
 2004b94:	10801014 	ori	r2,r2,64
 2004b98:	b080030d 	sth	r2,12(r22)
 2004b9c:	d8814b17 	ldw	r2,1324(sp)
 2004ba0:	dfc15b17 	ldw	ra,1388(sp)
 2004ba4:	df015a17 	ldw	fp,1384(sp)
 2004ba8:	ddc15917 	ldw	r23,1380(sp)
 2004bac:	dd815817 	ldw	r22,1376(sp)
 2004bb0:	dd415717 	ldw	r21,1372(sp)
 2004bb4:	dd015617 	ldw	r20,1368(sp)
 2004bb8:	dcc15517 	ldw	r19,1364(sp)
 2004bbc:	dc815417 	ldw	r18,1360(sp)
 2004bc0:	dc415317 	ldw	r17,1356(sp)
 2004bc4:	dc015217 	ldw	r16,1352(sp)
 2004bc8:	dec15c04 	addi	sp,sp,1392
 2004bcc:	f800283a 	ret
 2004bd0:	0005883a 	mov	r2,zero
 2004bd4:	0007883a 	mov	r3,zero
 2004bd8:	dd401904 	addi	r21,sp,100
 2004bdc:	d8814215 	stw	r2,1288(sp)
 2004be0:	802f883a 	mov	r23,r16
 2004be4:	d8c14315 	stw	r3,1292(sp)
 2004be8:	d8014b15 	stw	zero,1324(sp)
 2004bec:	d8014815 	stw	zero,1312(sp)
 2004bf0:	d8014415 	stw	zero,1296(sp)
 2004bf4:	d8014715 	stw	zero,1308(sp)
 2004bf8:	dd400c15 	stw	r21,48(sp)
 2004bfc:	d8000e15 	stw	zero,56(sp)
 2004c00:	d8000d15 	stw	zero,52(sp)
 2004c04:	b8800007 	ldb	r2,0(r23)
 2004c08:	10001926 	beq	r2,zero,2004c70 <___vfprintf_internal_r+0x1dc>
 2004c0c:	00c00944 	movi	r3,37
 2004c10:	10c01726 	beq	r2,r3,2004c70 <___vfprintf_internal_r+0x1dc>
 2004c14:	b821883a 	mov	r16,r23
 2004c18:	00000106 	br	2004c20 <___vfprintf_internal_r+0x18c>
 2004c1c:	10c00326 	beq	r2,r3,2004c2c <___vfprintf_internal_r+0x198>
 2004c20:	84000044 	addi	r16,r16,1
 2004c24:	80800007 	ldb	r2,0(r16)
 2004c28:	103ffc1e 	bne	r2,zero,2004c1c <___vfprintf_internal_r+0x188>
 2004c2c:	85e7c83a 	sub	r19,r16,r23
 2004c30:	98000e26 	beq	r19,zero,2004c6c <___vfprintf_internal_r+0x1d8>
 2004c34:	dc800e17 	ldw	r18,56(sp)
 2004c38:	dc400d17 	ldw	r17,52(sp)
 2004c3c:	008001c4 	movi	r2,7
 2004c40:	94e5883a 	add	r18,r18,r19
 2004c44:	8c400044 	addi	r17,r17,1
 2004c48:	adc00015 	stw	r23,0(r21)
 2004c4c:	dc800e15 	stw	r18,56(sp)
 2004c50:	acc00115 	stw	r19,4(r21)
 2004c54:	dc400d15 	stw	r17,52(sp)
 2004c58:	14428b16 	blt	r2,r17,2005688 <___vfprintf_internal_r+0xbf4>
 2004c5c:	ad400204 	addi	r21,r21,8
 2004c60:	d9014b17 	ldw	r4,1324(sp)
 2004c64:	24c9883a 	add	r4,r4,r19
 2004c68:	d9014b15 	stw	r4,1324(sp)
 2004c6c:	802f883a 	mov	r23,r16
 2004c70:	b8800007 	ldb	r2,0(r23)
 2004c74:	10013c26 	beq	r2,zero,2005168 <___vfprintf_internal_r+0x6d4>
 2004c78:	bdc00044 	addi	r23,r23,1
 2004c7c:	d8000405 	stb	zero,16(sp)
 2004c80:	b8c00007 	ldb	r3,0(r23)
 2004c84:	04ffffc4 	movi	r19,-1
 2004c88:	d8014c15 	stw	zero,1328(sp)
 2004c8c:	d8014a15 	stw	zero,1320(sp)
 2004c90:	d8c14d15 	stw	r3,1332(sp)
 2004c94:	bdc00044 	addi	r23,r23,1
 2004c98:	d9414d17 	ldw	r5,1332(sp)
 2004c9c:	00801604 	movi	r2,88
 2004ca0:	28fff804 	addi	r3,r5,-32
 2004ca4:	10c06036 	bltu	r2,r3,2004e28 <___vfprintf_internal_r+0x394>
 2004ca8:	18c5883a 	add	r2,r3,r3
 2004cac:	1085883a 	add	r2,r2,r2
 2004cb0:	00c08034 	movhi	r3,512
 2004cb4:	18d33104 	addi	r3,r3,19652
 2004cb8:	10c5883a 	add	r2,r2,r3
 2004cbc:	11000017 	ldw	r4,0(r2)
 2004cc0:	2000683a 	jmp	r4
 2004cc4:	02005c38 	rdprs	r8,zero,368
 2004cc8:	02004e28 	cmpgeui	r8,zero,312
 2004ccc:	02004e28 	cmpgeui	r8,zero,312
 2004cd0:	02005c24 	muli	r8,zero,368
 2004cd4:	02004e28 	cmpgeui	r8,zero,312
 2004cd8:	02004e28 	cmpgeui	r8,zero,312
 2004cdc:	02004e28 	cmpgeui	r8,zero,312
 2004ce0:	02004e28 	cmpgeui	r8,zero,312
 2004ce4:	02004e28 	cmpgeui	r8,zero,312
 2004ce8:	02004e28 	cmpgeui	r8,zero,312
 2004cec:	02005a04 	movi	r8,360
 2004cf0:	02005c14 	movui	r8,368
 2004cf4:	02004e28 	cmpgeui	r8,zero,312
 2004cf8:	02005a1c 	xori	r8,zero,360
 2004cfc:	02005cbc 	xorhi	r8,zero,370
 2004d00:	02004e28 	cmpgeui	r8,zero,312
 2004d04:	02005ca8 	cmpgeui	r8,zero,370
 2004d08:	02005c64 	muli	r8,zero,369
 2004d0c:	02005c64 	muli	r8,zero,369
 2004d10:	02005c64 	muli	r8,zero,369
 2004d14:	02005c64 	muli	r8,zero,369
 2004d18:	02005c64 	muli	r8,zero,369
 2004d1c:	02005c64 	muli	r8,zero,369
 2004d20:	02005c64 	muli	r8,zero,369
 2004d24:	02005c64 	muli	r8,zero,369
 2004d28:	02005c64 	muli	r8,zero,369
 2004d2c:	02004e28 	cmpgeui	r8,zero,312
 2004d30:	02004e28 	cmpgeui	r8,zero,312
 2004d34:	02004e28 	cmpgeui	r8,zero,312
 2004d38:	02004e28 	cmpgeui	r8,zero,312
 2004d3c:	02004e28 	cmpgeui	r8,zero,312
 2004d40:	02004e28 	cmpgeui	r8,zero,312
 2004d44:	02004e28 	cmpgeui	r8,zero,312
 2004d48:	02004e28 	cmpgeui	r8,zero,312
 2004d4c:	02004e28 	cmpgeui	r8,zero,312
 2004d50:	02004e28 	cmpgeui	r8,zero,312
 2004d54:	02005480 	call	200548 <__reset-0x1dffab8>
 2004d58:	02005aec 	andhi	r8,zero,363
 2004d5c:	02004e28 	cmpgeui	r8,zero,312
 2004d60:	02005aec 	andhi	r8,zero,363
 2004d64:	02004e28 	cmpgeui	r8,zero,312
 2004d68:	02004e28 	cmpgeui	r8,zero,312
 2004d6c:	02004e28 	cmpgeui	r8,zero,312
 2004d70:	02004e28 	cmpgeui	r8,zero,312
 2004d74:	02005c50 	cmplti	r8,zero,369
 2004d78:	02004e28 	cmpgeui	r8,zero,312
 2004d7c:	02004e28 	cmpgeui	r8,zero,312
 2004d80:	02005534 	movhi	r8,340
 2004d84:	02004e28 	cmpgeui	r8,zero,312
 2004d88:	02004e28 	cmpgeui	r8,zero,312
 2004d8c:	02004e28 	cmpgeui	r8,zero,312
 2004d90:	02004e28 	cmpgeui	r8,zero,312
 2004d94:	02004e28 	cmpgeui	r8,zero,312
 2004d98:	02005580 	call	200558 <__reset-0x1dffaa8>
 2004d9c:	02004e28 	cmpgeui	r8,zero,312
 2004da0:	02004e28 	cmpgeui	r8,zero,312
 2004da4:	02005ba0 	cmpeqi	r8,zero,366
 2004da8:	02004e28 	cmpgeui	r8,zero,312
 2004dac:	02004e28 	cmpgeui	r8,zero,312
 2004db0:	02004e28 	cmpgeui	r8,zero,312
 2004db4:	02004e28 	cmpgeui	r8,zero,312
 2004db8:	02004e28 	cmpgeui	r8,zero,312
 2004dbc:	02004e28 	cmpgeui	r8,zero,312
 2004dc0:	02004e28 	cmpgeui	r8,zero,312
 2004dc4:	02004e28 	cmpgeui	r8,zero,312
 2004dc8:	02004e28 	cmpgeui	r8,zero,312
 2004dcc:	02004e28 	cmpgeui	r8,zero,312
 2004dd0:	02005b74 	movhi	r8,365
 2004dd4:	0200548c 	andi	r8,zero,338
 2004dd8:	02005aec 	andhi	r8,zero,363
 2004ddc:	02005aec 	andhi	r8,zero,363
 2004de0:	02005aec 	andhi	r8,zero,363
 2004de4:	02005ad8 	cmpnei	r8,zero,363
 2004de8:	0200548c 	andi	r8,zero,338
 2004dec:	02004e28 	cmpgeui	r8,zero,312
 2004df0:	02004e28 	cmpgeui	r8,zero,312
 2004df4:	02005a60 	cmpeqi	r8,zero,361
 2004df8:	02004e28 	cmpgeui	r8,zero,312
 2004dfc:	02005a30 	cmpltui	r8,zero,360
 2004e00:	02005540 	call	200554 <__reset-0x1dffaac>
 2004e04:	02005a90 	cmplti	r8,zero,362
 2004e08:	02005a7c 	xorhi	r8,zero,361
 2004e0c:	02004e28 	cmpgeui	r8,zero,312
 2004e10:	02005d24 	muli	r8,zero,372
 2004e14:	02004e28 	cmpgeui	r8,zero,312
 2004e18:	0200558c 	andi	r8,zero,342
 2004e1c:	02004e28 	cmpgeui	r8,zero,312
 2004e20:	02004e28 	cmpgeui	r8,zero,312
 2004e24:	02005c04 	movi	r8,368
 2004e28:	d9014d17 	ldw	r4,1332(sp)
 2004e2c:	2000ce26 	beq	r4,zero,2005168 <___vfprintf_internal_r+0x6d4>
 2004e30:	01400044 	movi	r5,1
 2004e34:	d9800f04 	addi	r6,sp,60
 2004e38:	d9c14015 	stw	r7,1280(sp)
 2004e3c:	d9414515 	stw	r5,1300(sp)
 2004e40:	d9814115 	stw	r6,1284(sp)
 2004e44:	280f883a 	mov	r7,r5
 2004e48:	d9000f05 	stb	r4,60(sp)
 2004e4c:	d8000405 	stb	zero,16(sp)
 2004e50:	d8014615 	stw	zero,1304(sp)
 2004e54:	d8c14c17 	ldw	r3,1328(sp)
 2004e58:	1880008c 	andi	r2,r3,2
 2004e5c:	1005003a 	cmpeq	r2,r2,zero
 2004e60:	d8815015 	stw	r2,1344(sp)
 2004e64:	1000031e 	bne	r2,zero,2004e74 <___vfprintf_internal_r+0x3e0>
 2004e68:	d9014517 	ldw	r4,1300(sp)
 2004e6c:	21000084 	addi	r4,r4,2
 2004e70:	d9014515 	stw	r4,1300(sp)
 2004e74:	d9414c17 	ldw	r5,1328(sp)
 2004e78:	2940210c 	andi	r5,r5,132
 2004e7c:	d9414e15 	stw	r5,1336(sp)
 2004e80:	28002d1e 	bne	r5,zero,2004f38 <___vfprintf_internal_r+0x4a4>
 2004e84:	d9814a17 	ldw	r6,1320(sp)
 2004e88:	d8814517 	ldw	r2,1300(sp)
 2004e8c:	30a1c83a 	sub	r16,r6,r2
 2004e90:	0400290e 	bge	zero,r16,2004f38 <___vfprintf_internal_r+0x4a4>
 2004e94:	00800404 	movi	r2,16
 2004e98:	14045e0e 	bge	r2,r16,2006014 <___vfprintf_internal_r+0x1580>
 2004e9c:	dc800e17 	ldw	r18,56(sp)
 2004ea0:	dc400d17 	ldw	r17,52(sp)
 2004ea4:	1027883a 	mov	r19,r2
 2004ea8:	07008074 	movhi	fp,513
 2004eac:	e7053584 	addi	fp,fp,5334
 2004eb0:	050001c4 	movi	r20,7
 2004eb4:	00000306 	br	2004ec4 <___vfprintf_internal_r+0x430>
 2004eb8:	843ffc04 	addi	r16,r16,-16
 2004ebc:	ad400204 	addi	r21,r21,8
 2004ec0:	9c00130e 	bge	r19,r16,2004f10 <___vfprintf_internal_r+0x47c>
 2004ec4:	94800404 	addi	r18,r18,16
 2004ec8:	8c400044 	addi	r17,r17,1
 2004ecc:	af000015 	stw	fp,0(r21)
 2004ed0:	acc00115 	stw	r19,4(r21)
 2004ed4:	dc800e15 	stw	r18,56(sp)
 2004ed8:	dc400d15 	stw	r17,52(sp)
 2004edc:	a47ff60e 	bge	r20,r17,2004eb8 <___vfprintf_internal_r+0x424>
 2004ee0:	d9014f17 	ldw	r4,1340(sp)
 2004ee4:	b00b883a 	mov	r5,r22
 2004ee8:	d9800c04 	addi	r6,sp,48
 2004eec:	d9c15115 	stw	r7,1348(sp)
 2004ef0:	2004a3c0 	call	2004a3c <__sprint_r>
 2004ef4:	d9c15117 	ldw	r7,1348(sp)
 2004ef8:	10009e1e 	bne	r2,zero,2005174 <___vfprintf_internal_r+0x6e0>
 2004efc:	843ffc04 	addi	r16,r16,-16
 2004f00:	dc800e17 	ldw	r18,56(sp)
 2004f04:	dc400d17 	ldw	r17,52(sp)
 2004f08:	dd401904 	addi	r21,sp,100
 2004f0c:	9c3fed16 	blt	r19,r16,2004ec4 <___vfprintf_internal_r+0x430>
 2004f10:	9425883a 	add	r18,r18,r16
 2004f14:	8c400044 	addi	r17,r17,1
 2004f18:	008001c4 	movi	r2,7
 2004f1c:	af000015 	stw	fp,0(r21)
 2004f20:	ac000115 	stw	r16,4(r21)
 2004f24:	dc800e15 	stw	r18,56(sp)
 2004f28:	dc400d15 	stw	r17,52(sp)
 2004f2c:	1441f516 	blt	r2,r17,2005704 <___vfprintf_internal_r+0xc70>
 2004f30:	ad400204 	addi	r21,r21,8
 2004f34:	00000206 	br	2004f40 <___vfprintf_internal_r+0x4ac>
 2004f38:	dc800e17 	ldw	r18,56(sp)
 2004f3c:	dc400d17 	ldw	r17,52(sp)
 2004f40:	d8800407 	ldb	r2,16(sp)
 2004f44:	10000b26 	beq	r2,zero,2004f74 <___vfprintf_internal_r+0x4e0>
 2004f48:	00800044 	movi	r2,1
 2004f4c:	94800044 	addi	r18,r18,1
 2004f50:	8c400044 	addi	r17,r17,1
 2004f54:	a8800115 	stw	r2,4(r21)
 2004f58:	d8c00404 	addi	r3,sp,16
 2004f5c:	008001c4 	movi	r2,7
 2004f60:	a8c00015 	stw	r3,0(r21)
 2004f64:	dc800e15 	stw	r18,56(sp)
 2004f68:	dc400d15 	stw	r17,52(sp)
 2004f6c:	1441da16 	blt	r2,r17,20056d8 <___vfprintf_internal_r+0xc44>
 2004f70:	ad400204 	addi	r21,r21,8
 2004f74:	d9015017 	ldw	r4,1344(sp)
 2004f78:	20000b1e 	bne	r4,zero,2004fa8 <___vfprintf_internal_r+0x514>
 2004f7c:	d8800444 	addi	r2,sp,17
 2004f80:	94800084 	addi	r18,r18,2
 2004f84:	8c400044 	addi	r17,r17,1
 2004f88:	a8800015 	stw	r2,0(r21)
 2004f8c:	00c00084 	movi	r3,2
 2004f90:	008001c4 	movi	r2,7
 2004f94:	a8c00115 	stw	r3,4(r21)
 2004f98:	dc800e15 	stw	r18,56(sp)
 2004f9c:	dc400d15 	stw	r17,52(sp)
 2004fa0:	1441c216 	blt	r2,r17,20056ac <___vfprintf_internal_r+0xc18>
 2004fa4:	ad400204 	addi	r21,r21,8
 2004fa8:	d9414e17 	ldw	r5,1336(sp)
 2004fac:	00802004 	movi	r2,128
 2004fb0:	2880b126 	beq	r5,r2,2005278 <___vfprintf_internal_r+0x7e4>
 2004fb4:	d8c14617 	ldw	r3,1304(sp)
 2004fb8:	19e1c83a 	sub	r16,r3,r7
 2004fbc:	0400260e 	bge	zero,r16,2005058 <___vfprintf_internal_r+0x5c4>
 2004fc0:	00800404 	movi	r2,16
 2004fc4:	1403cf0e 	bge	r2,r16,2005f04 <___vfprintf_internal_r+0x1470>
 2004fc8:	1027883a 	mov	r19,r2
 2004fcc:	07008074 	movhi	fp,513
 2004fd0:	e7053184 	addi	fp,fp,5318
 2004fd4:	050001c4 	movi	r20,7
 2004fd8:	00000306 	br	2004fe8 <___vfprintf_internal_r+0x554>
 2004fdc:	843ffc04 	addi	r16,r16,-16
 2004fe0:	ad400204 	addi	r21,r21,8
 2004fe4:	9c00130e 	bge	r19,r16,2005034 <___vfprintf_internal_r+0x5a0>
 2004fe8:	94800404 	addi	r18,r18,16
 2004fec:	8c400044 	addi	r17,r17,1
 2004ff0:	af000015 	stw	fp,0(r21)
 2004ff4:	acc00115 	stw	r19,4(r21)
 2004ff8:	dc800e15 	stw	r18,56(sp)
 2004ffc:	dc400d15 	stw	r17,52(sp)
 2005000:	a47ff60e 	bge	r20,r17,2004fdc <___vfprintf_internal_r+0x548>
 2005004:	d9014f17 	ldw	r4,1340(sp)
 2005008:	b00b883a 	mov	r5,r22
 200500c:	d9800c04 	addi	r6,sp,48
 2005010:	d9c15115 	stw	r7,1348(sp)
 2005014:	2004a3c0 	call	2004a3c <__sprint_r>
 2005018:	d9c15117 	ldw	r7,1348(sp)
 200501c:	1000551e 	bne	r2,zero,2005174 <___vfprintf_internal_r+0x6e0>
 2005020:	843ffc04 	addi	r16,r16,-16
 2005024:	dc800e17 	ldw	r18,56(sp)
 2005028:	dc400d17 	ldw	r17,52(sp)
 200502c:	dd401904 	addi	r21,sp,100
 2005030:	9c3fed16 	blt	r19,r16,2004fe8 <___vfprintf_internal_r+0x554>
 2005034:	9425883a 	add	r18,r18,r16
 2005038:	8c400044 	addi	r17,r17,1
 200503c:	008001c4 	movi	r2,7
 2005040:	af000015 	stw	fp,0(r21)
 2005044:	ac000115 	stw	r16,4(r21)
 2005048:	dc800e15 	stw	r18,56(sp)
 200504c:	dc400d15 	stw	r17,52(sp)
 2005050:	14418216 	blt	r2,r17,200565c <___vfprintf_internal_r+0xbc8>
 2005054:	ad400204 	addi	r21,r21,8
 2005058:	d9014c17 	ldw	r4,1328(sp)
 200505c:	2080400c 	andi	r2,r4,256
 2005060:	10004a1e 	bne	r2,zero,200518c <___vfprintf_internal_r+0x6f8>
 2005064:	d9414117 	ldw	r5,1284(sp)
 2005068:	91e5883a 	add	r18,r18,r7
 200506c:	8c400044 	addi	r17,r17,1
 2005070:	008001c4 	movi	r2,7
 2005074:	a9400015 	stw	r5,0(r21)
 2005078:	a9c00115 	stw	r7,4(r21)
 200507c:	dc800e15 	stw	r18,56(sp)
 2005080:	dc400d15 	stw	r17,52(sp)
 2005084:	14416716 	blt	r2,r17,2005624 <___vfprintf_internal_r+0xb90>
 2005088:	a8c00204 	addi	r3,r21,8
 200508c:	d9814c17 	ldw	r6,1328(sp)
 2005090:	3080010c 	andi	r2,r6,4
 2005094:	10002826 	beq	r2,zero,2005138 <___vfprintf_internal_r+0x6a4>
 2005098:	d8814a17 	ldw	r2,1320(sp)
 200509c:	d9014517 	ldw	r4,1300(sp)
 20050a0:	1121c83a 	sub	r16,r2,r4
 20050a4:	0400240e 	bge	zero,r16,2005138 <___vfprintf_internal_r+0x6a4>
 20050a8:	00800404 	movi	r2,16
 20050ac:	1404550e 	bge	r2,r16,2006204 <___vfprintf_internal_r+0x1770>
 20050b0:	dc400d17 	ldw	r17,52(sp)
 20050b4:	1027883a 	mov	r19,r2
 20050b8:	07008074 	movhi	fp,513
 20050bc:	e7053584 	addi	fp,fp,5334
 20050c0:	050001c4 	movi	r20,7
 20050c4:	00000306 	br	20050d4 <___vfprintf_internal_r+0x640>
 20050c8:	843ffc04 	addi	r16,r16,-16
 20050cc:	18c00204 	addi	r3,r3,8
 20050d0:	9c00110e 	bge	r19,r16,2005118 <___vfprintf_internal_r+0x684>
 20050d4:	94800404 	addi	r18,r18,16
 20050d8:	8c400044 	addi	r17,r17,1
 20050dc:	1f000015 	stw	fp,0(r3)
 20050e0:	1cc00115 	stw	r19,4(r3)
 20050e4:	dc800e15 	stw	r18,56(sp)
 20050e8:	dc400d15 	stw	r17,52(sp)
 20050ec:	a47ff60e 	bge	r20,r17,20050c8 <___vfprintf_internal_r+0x634>
 20050f0:	d9014f17 	ldw	r4,1340(sp)
 20050f4:	b00b883a 	mov	r5,r22
 20050f8:	d9800c04 	addi	r6,sp,48
 20050fc:	2004a3c0 	call	2004a3c <__sprint_r>
 2005100:	10001c1e 	bne	r2,zero,2005174 <___vfprintf_internal_r+0x6e0>
 2005104:	843ffc04 	addi	r16,r16,-16
 2005108:	dc800e17 	ldw	r18,56(sp)
 200510c:	dc400d17 	ldw	r17,52(sp)
 2005110:	d8c01904 	addi	r3,sp,100
 2005114:	9c3fef16 	blt	r19,r16,20050d4 <___vfprintf_internal_r+0x640>
 2005118:	9425883a 	add	r18,r18,r16
 200511c:	8c400044 	addi	r17,r17,1
 2005120:	008001c4 	movi	r2,7
 2005124:	1f000015 	stw	fp,0(r3)
 2005128:	1c000115 	stw	r16,4(r3)
 200512c:	dc800e15 	stw	r18,56(sp)
 2005130:	dc400d15 	stw	r17,52(sp)
 2005134:	1440cb16 	blt	r2,r17,2005464 <___vfprintf_internal_r+0x9d0>
 2005138:	d8814a17 	ldw	r2,1320(sp)
 200513c:	d9414517 	ldw	r5,1300(sp)
 2005140:	1140010e 	bge	r2,r5,2005148 <___vfprintf_internal_r+0x6b4>
 2005144:	2805883a 	mov	r2,r5
 2005148:	d9814b17 	ldw	r6,1324(sp)
 200514c:	308d883a 	add	r6,r6,r2
 2005150:	d9814b15 	stw	r6,1324(sp)
 2005154:	90013b1e 	bne	r18,zero,2005644 <___vfprintf_internal_r+0xbb0>
 2005158:	d9c14017 	ldw	r7,1280(sp)
 200515c:	dd401904 	addi	r21,sp,100
 2005160:	d8000d15 	stw	zero,52(sp)
 2005164:	003ea706 	br	2004c04 <___vfprintf_internal_r+0x170>
 2005168:	d8800e17 	ldw	r2,56(sp)
 200516c:	1005451e 	bne	r2,zero,2006684 <___vfprintf_internal_r+0x1bf0>
 2005170:	d8000d15 	stw	zero,52(sp)
 2005174:	b080030b 	ldhu	r2,12(r22)
 2005178:	1080100c 	andi	r2,r2,64
 200517c:	103e8726 	beq	r2,zero,2004b9c <___vfprintf_internal_r+0x108>
 2005180:	00bfffc4 	movi	r2,-1
 2005184:	d8814b15 	stw	r2,1324(sp)
 2005188:	003e8406 	br	2004b9c <___vfprintf_internal_r+0x108>
 200518c:	d9814d17 	ldw	r6,1332(sp)
 2005190:	00801944 	movi	r2,101
 2005194:	11806e16 	blt	r2,r6,2005350 <___vfprintf_internal_r+0x8bc>
 2005198:	d9414717 	ldw	r5,1308(sp)
 200519c:	00c00044 	movi	r3,1
 20051a0:	1943490e 	bge	r3,r5,2005ec8 <___vfprintf_internal_r+0x1434>
 20051a4:	d8814117 	ldw	r2,1284(sp)
 20051a8:	94800044 	addi	r18,r18,1
 20051ac:	8c400044 	addi	r17,r17,1
 20051b0:	a8800015 	stw	r2,0(r21)
 20051b4:	008001c4 	movi	r2,7
 20051b8:	a8c00115 	stw	r3,4(r21)
 20051bc:	dc800e15 	stw	r18,56(sp)
 20051c0:	dc400d15 	stw	r17,52(sp)
 20051c4:	1441ca16 	blt	r2,r17,20058f0 <___vfprintf_internal_r+0xe5c>
 20051c8:	a8c00204 	addi	r3,r21,8
 20051cc:	d9014917 	ldw	r4,1316(sp)
 20051d0:	00800044 	movi	r2,1
 20051d4:	94800044 	addi	r18,r18,1
 20051d8:	8c400044 	addi	r17,r17,1
 20051dc:	18800115 	stw	r2,4(r3)
 20051e0:	008001c4 	movi	r2,7
 20051e4:	19000015 	stw	r4,0(r3)
 20051e8:	dc800e15 	stw	r18,56(sp)
 20051ec:	dc400d15 	stw	r17,52(sp)
 20051f0:	1441b616 	blt	r2,r17,20058cc <___vfprintf_internal_r+0xe38>
 20051f4:	1cc00204 	addi	r19,r3,8
 20051f8:	d9014217 	ldw	r4,1288(sp)
 20051fc:	d9414317 	ldw	r5,1292(sp)
 2005200:	000d883a 	mov	r6,zero
 2005204:	000f883a 	mov	r7,zero
 2005208:	200cef00 	call	200cef0 <__nedf2>
 200520c:	10017426 	beq	r2,zero,20057e0 <___vfprintf_internal_r+0xd4c>
 2005210:	d9414717 	ldw	r5,1308(sp)
 2005214:	d9814117 	ldw	r6,1284(sp)
 2005218:	8c400044 	addi	r17,r17,1
 200521c:	2c85883a 	add	r2,r5,r18
 2005220:	14bfffc4 	addi	r18,r2,-1
 2005224:	28bfffc4 	addi	r2,r5,-1
 2005228:	30c00044 	addi	r3,r6,1
 200522c:	98800115 	stw	r2,4(r19)
 2005230:	008001c4 	movi	r2,7
 2005234:	98c00015 	stw	r3,0(r19)
 2005238:	dc800e15 	stw	r18,56(sp)
 200523c:	dc400d15 	stw	r17,52(sp)
 2005240:	14418e16 	blt	r2,r17,200587c <___vfprintf_internal_r+0xde8>
 2005244:	9cc00204 	addi	r19,r19,8
 2005248:	d9414817 	ldw	r5,1312(sp)
 200524c:	d8800804 	addi	r2,sp,32
 2005250:	8c400044 	addi	r17,r17,1
 2005254:	9165883a 	add	r18,r18,r5
 2005258:	98800015 	stw	r2,0(r19)
 200525c:	008001c4 	movi	r2,7
 2005260:	99400115 	stw	r5,4(r19)
 2005264:	dc800e15 	stw	r18,56(sp)
 2005268:	dc400d15 	stw	r17,52(sp)
 200526c:	1440ed16 	blt	r2,r17,2005624 <___vfprintf_internal_r+0xb90>
 2005270:	98c00204 	addi	r3,r19,8
 2005274:	003f8506 	br	200508c <___vfprintf_internal_r+0x5f8>
 2005278:	d9814a17 	ldw	r6,1320(sp)
 200527c:	d8814517 	ldw	r2,1300(sp)
 2005280:	30a1c83a 	sub	r16,r6,r2
 2005284:	043f4b0e 	bge	zero,r16,2004fb4 <___vfprintf_internal_r+0x520>
 2005288:	00800404 	movi	r2,16
 200528c:	14043a0e 	bge	r2,r16,2006378 <___vfprintf_internal_r+0x18e4>
 2005290:	1027883a 	mov	r19,r2
 2005294:	07008074 	movhi	fp,513
 2005298:	e7053184 	addi	fp,fp,5318
 200529c:	050001c4 	movi	r20,7
 20052a0:	00000306 	br	20052b0 <___vfprintf_internal_r+0x81c>
 20052a4:	843ffc04 	addi	r16,r16,-16
 20052a8:	ad400204 	addi	r21,r21,8
 20052ac:	9c00130e 	bge	r19,r16,20052fc <___vfprintf_internal_r+0x868>
 20052b0:	94800404 	addi	r18,r18,16
 20052b4:	8c400044 	addi	r17,r17,1
 20052b8:	af000015 	stw	fp,0(r21)
 20052bc:	acc00115 	stw	r19,4(r21)
 20052c0:	dc800e15 	stw	r18,56(sp)
 20052c4:	dc400d15 	stw	r17,52(sp)
 20052c8:	a47ff60e 	bge	r20,r17,20052a4 <___vfprintf_internal_r+0x810>
 20052cc:	d9014f17 	ldw	r4,1340(sp)
 20052d0:	b00b883a 	mov	r5,r22
 20052d4:	d9800c04 	addi	r6,sp,48
 20052d8:	d9c15115 	stw	r7,1348(sp)
 20052dc:	2004a3c0 	call	2004a3c <__sprint_r>
 20052e0:	d9c15117 	ldw	r7,1348(sp)
 20052e4:	103fa31e 	bne	r2,zero,2005174 <___vfprintf_internal_r+0x6e0>
 20052e8:	843ffc04 	addi	r16,r16,-16
 20052ec:	dc800e17 	ldw	r18,56(sp)
 20052f0:	dc400d17 	ldw	r17,52(sp)
 20052f4:	dd401904 	addi	r21,sp,100
 20052f8:	9c3fed16 	blt	r19,r16,20052b0 <___vfprintf_internal_r+0x81c>
 20052fc:	9425883a 	add	r18,r18,r16
 2005300:	8c400044 	addi	r17,r17,1
 2005304:	008001c4 	movi	r2,7
 2005308:	af000015 	stw	fp,0(r21)
 200530c:	ac000115 	stw	r16,4(r21)
 2005310:	dc800e15 	stw	r18,56(sp)
 2005314:	dc400d15 	stw	r17,52(sp)
 2005318:	14416116 	blt	r2,r17,20058a0 <___vfprintf_internal_r+0xe0c>
 200531c:	ad400204 	addi	r21,r21,8
 2005320:	003f2406 	br	2004fb4 <___vfprintf_internal_r+0x520>
 2005324:	d9014f17 	ldw	r4,1340(sp)
 2005328:	20085480 	call	2008548 <__sinit>
 200532c:	d9c15117 	ldw	r7,1348(sp)
 2005330:	003def06 	br	2004af0 <___vfprintf_internal_r+0x5c>
 2005334:	d9014f17 	ldw	r4,1340(sp)
 2005338:	b00b883a 	mov	r5,r22
 200533c:	d9c15115 	stw	r7,1348(sp)
 2005340:	200697c0 	call	200697c <__swsetup_r>
 2005344:	d9c15117 	ldw	r7,1348(sp)
 2005348:	103dee26 	beq	r2,zero,2004b04 <___vfprintf_internal_r+0x70>
 200534c:	003f8c06 	br	2005180 <___vfprintf_internal_r+0x6ec>
 2005350:	d9014217 	ldw	r4,1288(sp)
 2005354:	d9414317 	ldw	r5,1292(sp)
 2005358:	000d883a 	mov	r6,zero
 200535c:	000f883a 	mov	r7,zero
 2005360:	200ce680 	call	200ce68 <__eqdf2>
 2005364:	1000f21e 	bne	r2,zero,2005730 <___vfprintf_internal_r+0xc9c>
 2005368:	00808074 	movhi	r2,513
 200536c:	10847a04 	addi	r2,r2,4584
 2005370:	94800044 	addi	r18,r18,1
 2005374:	8c400044 	addi	r17,r17,1
 2005378:	a8800015 	stw	r2,0(r21)
 200537c:	00c00044 	movi	r3,1
 2005380:	008001c4 	movi	r2,7
 2005384:	a8c00115 	stw	r3,4(r21)
 2005388:	dc800e15 	stw	r18,56(sp)
 200538c:	dc400d15 	stw	r17,52(sp)
 2005390:	14430016 	blt	r2,r17,2005f94 <___vfprintf_internal_r+0x1500>
 2005394:	a8c00204 	addi	r3,r21,8
 2005398:	d8800517 	ldw	r2,20(sp)
 200539c:	d9014717 	ldw	r4,1308(sp)
 20053a0:	11015c0e 	bge	r2,r4,2005914 <___vfprintf_internal_r+0xe80>
 20053a4:	dc400d17 	ldw	r17,52(sp)
 20053a8:	d9814917 	ldw	r6,1316(sp)
 20053ac:	00800044 	movi	r2,1
 20053b0:	94800044 	addi	r18,r18,1
 20053b4:	8c400044 	addi	r17,r17,1
 20053b8:	18800115 	stw	r2,4(r3)
 20053bc:	008001c4 	movi	r2,7
 20053c0:	19800015 	stw	r6,0(r3)
 20053c4:	dc800e15 	stw	r18,56(sp)
 20053c8:	dc400d15 	stw	r17,52(sp)
 20053cc:	14431616 	blt	r2,r17,2006028 <___vfprintf_internal_r+0x1594>
 20053d0:	18c00204 	addi	r3,r3,8
 20053d4:	d8814717 	ldw	r2,1308(sp)
 20053d8:	143fffc4 	addi	r16,r2,-1
 20053dc:	043f2b0e 	bge	zero,r16,200508c <___vfprintf_internal_r+0x5f8>
 20053e0:	00800404 	movi	r2,16
 20053e4:	1402a80e 	bge	r2,r16,2005e88 <___vfprintf_internal_r+0x13f4>
 20053e8:	dc400d17 	ldw	r17,52(sp)
 20053ec:	1027883a 	mov	r19,r2
 20053f0:	07008074 	movhi	fp,513
 20053f4:	e7053184 	addi	fp,fp,5318
 20053f8:	050001c4 	movi	r20,7
 20053fc:	00000306 	br	200540c <___vfprintf_internal_r+0x978>
 2005400:	18c00204 	addi	r3,r3,8
 2005404:	843ffc04 	addi	r16,r16,-16
 2005408:	9c02a20e 	bge	r19,r16,2005e94 <___vfprintf_internal_r+0x1400>
 200540c:	94800404 	addi	r18,r18,16
 2005410:	8c400044 	addi	r17,r17,1
 2005414:	1f000015 	stw	fp,0(r3)
 2005418:	1cc00115 	stw	r19,4(r3)
 200541c:	dc800e15 	stw	r18,56(sp)
 2005420:	dc400d15 	stw	r17,52(sp)
 2005424:	a47ff60e 	bge	r20,r17,2005400 <___vfprintf_internal_r+0x96c>
 2005428:	d9014f17 	ldw	r4,1340(sp)
 200542c:	b00b883a 	mov	r5,r22
 2005430:	d9800c04 	addi	r6,sp,48
 2005434:	2004a3c0 	call	2004a3c <__sprint_r>
 2005438:	103f4e1e 	bne	r2,zero,2005174 <___vfprintf_internal_r+0x6e0>
 200543c:	dc800e17 	ldw	r18,56(sp)
 2005440:	dc400d17 	ldw	r17,52(sp)
 2005444:	d8c01904 	addi	r3,sp,100
 2005448:	003fee06 	br	2005404 <___vfprintf_internal_r+0x970>
 200544c:	d8802c0b 	ldhu	r2,176(sp)
 2005450:	00ffffc4 	movi	r3,-1
 2005454:	d8c14b15 	stw	r3,1324(sp)
 2005458:	1080100c 	andi	r2,r2,64
 200545c:	103dcc1e 	bne	r2,zero,2004b90 <___vfprintf_internal_r+0xfc>
 2005460:	003dce06 	br	2004b9c <___vfprintf_internal_r+0x108>
 2005464:	d9014f17 	ldw	r4,1340(sp)
 2005468:	b00b883a 	mov	r5,r22
 200546c:	d9800c04 	addi	r6,sp,48
 2005470:	2004a3c0 	call	2004a3c <__sprint_r>
 2005474:	103f3f1e 	bne	r2,zero,2005174 <___vfprintf_internal_r+0x6e0>
 2005478:	dc800e17 	ldw	r18,56(sp)
 200547c:	003f2e06 	br	2005138 <___vfprintf_internal_r+0x6a4>
 2005480:	d9414c17 	ldw	r5,1328(sp)
 2005484:	29400414 	ori	r5,r5,16
 2005488:	d9414c15 	stw	r5,1328(sp)
 200548c:	d9814c17 	ldw	r6,1328(sp)
 2005490:	3080080c 	andi	r2,r6,32
 2005494:	10014f1e 	bne	r2,zero,20059d4 <___vfprintf_internal_r+0xf40>
 2005498:	d8c14c17 	ldw	r3,1328(sp)
 200549c:	1880040c 	andi	r2,r3,16
 20054a0:	1002f01e 	bne	r2,zero,2006064 <___vfprintf_internal_r+0x15d0>
 20054a4:	d9014c17 	ldw	r4,1328(sp)
 20054a8:	2080100c 	andi	r2,r4,64
 20054ac:	1002ed26 	beq	r2,zero,2006064 <___vfprintf_internal_r+0x15d0>
 20054b0:	3880000f 	ldh	r2,0(r7)
 20054b4:	39c00104 	addi	r7,r7,4
 20054b8:	d9c14015 	stw	r7,1280(sp)
 20054bc:	1023d7fa 	srai	r17,r2,31
 20054c0:	1021883a 	mov	r16,r2
 20054c4:	88037816 	blt	r17,zero,20062a8 <___vfprintf_internal_r+0x1814>
 20054c8:	01000044 	movi	r4,1
 20054cc:	98000416 	blt	r19,zero,20054e0 <___vfprintf_internal_r+0xa4c>
 20054d0:	d8c14c17 	ldw	r3,1328(sp)
 20054d4:	00bfdfc4 	movi	r2,-129
 20054d8:	1886703a 	and	r3,r3,r2
 20054dc:	d8c14c15 	stw	r3,1328(sp)
 20054e0:	8444b03a 	or	r2,r16,r17
 20054e4:	10022c1e 	bne	r2,zero,2005d98 <___vfprintf_internal_r+0x1304>
 20054e8:	98022b1e 	bne	r19,zero,2005d98 <___vfprintf_internal_r+0x1304>
 20054ec:	20803fcc 	andi	r2,r4,255
 20054f0:	1002a126 	beq	r2,zero,2005f78 <___vfprintf_internal_r+0x14e4>
 20054f4:	d8c01904 	addi	r3,sp,100
 20054f8:	dd000f04 	addi	r20,sp,60
 20054fc:	d8c14115 	stw	r3,1284(sp)
 2005500:	d8c14117 	ldw	r3,1284(sp)
 2005504:	dcc14515 	stw	r19,1300(sp)
 2005508:	a0c5c83a 	sub	r2,r20,r3
 200550c:	11c00a04 	addi	r7,r2,40
 2005510:	99c0010e 	bge	r19,r7,2005518 <___vfprintf_internal_r+0xa84>
 2005514:	d9c14515 	stw	r7,1300(sp)
 2005518:	dcc14615 	stw	r19,1304(sp)
 200551c:	d8800407 	ldb	r2,16(sp)
 2005520:	103e4c26 	beq	r2,zero,2004e54 <___vfprintf_internal_r+0x3c0>
 2005524:	d8814517 	ldw	r2,1300(sp)
 2005528:	10800044 	addi	r2,r2,1
 200552c:	d8814515 	stw	r2,1300(sp)
 2005530:	003e4806 	br	2004e54 <___vfprintf_internal_r+0x3c0>
 2005534:	d9814c17 	ldw	r6,1328(sp)
 2005538:	31800414 	ori	r6,r6,16
 200553c:	d9814c15 	stw	r6,1328(sp)
 2005540:	d8c14c17 	ldw	r3,1328(sp)
 2005544:	1880080c 	andi	r2,r3,32
 2005548:	1001271e 	bne	r2,zero,20059e8 <___vfprintf_internal_r+0xf54>
 200554c:	d9414c17 	ldw	r5,1328(sp)
 2005550:	2880040c 	andi	r2,r5,16
 2005554:	1002bc1e 	bne	r2,zero,2006048 <___vfprintf_internal_r+0x15b4>
 2005558:	d9814c17 	ldw	r6,1328(sp)
 200555c:	3080100c 	andi	r2,r6,64
 2005560:	1002b926 	beq	r2,zero,2006048 <___vfprintf_internal_r+0x15b4>
 2005564:	3c00000b 	ldhu	r16,0(r7)
 2005568:	0009883a 	mov	r4,zero
 200556c:	39c00104 	addi	r7,r7,4
 2005570:	0023883a 	mov	r17,zero
 2005574:	d9c14015 	stw	r7,1280(sp)
 2005578:	d8000405 	stb	zero,16(sp)
 200557c:	003fd306 	br	20054cc <___vfprintf_internal_r+0xa38>
 2005580:	d9014c17 	ldw	r4,1328(sp)
 2005584:	21000414 	ori	r4,r4,16
 2005588:	d9014c15 	stw	r4,1328(sp)
 200558c:	d9414c17 	ldw	r5,1328(sp)
 2005590:	2880080c 	andi	r2,r5,32
 2005594:	1001081e 	bne	r2,zero,20059b8 <___vfprintf_internal_r+0xf24>
 2005598:	d8c14c17 	ldw	r3,1328(sp)
 200559c:	1880040c 	andi	r2,r3,16
 20055a0:	1002b61e 	bne	r2,zero,200607c <___vfprintf_internal_r+0x15e8>
 20055a4:	d9014c17 	ldw	r4,1328(sp)
 20055a8:	2080100c 	andi	r2,r4,64
 20055ac:	1002b326 	beq	r2,zero,200607c <___vfprintf_internal_r+0x15e8>
 20055b0:	3c00000b 	ldhu	r16,0(r7)
 20055b4:	01000044 	movi	r4,1
 20055b8:	39c00104 	addi	r7,r7,4
 20055bc:	0023883a 	mov	r17,zero
 20055c0:	d9c14015 	stw	r7,1280(sp)
 20055c4:	d8000405 	stb	zero,16(sp)
 20055c8:	003fc006 	br	20054cc <___vfprintf_internal_r+0xa38>
 20055cc:	d9014f17 	ldw	r4,1340(sp)
 20055d0:	b00b883a 	mov	r5,r22
 20055d4:	d9800c04 	addi	r6,sp,48
 20055d8:	2004a3c0 	call	2004a3c <__sprint_r>
 20055dc:	103ee51e 	bne	r2,zero,2005174 <___vfprintf_internal_r+0x6e0>
 20055e0:	dc800e17 	ldw	r18,56(sp)
 20055e4:	d8c01904 	addi	r3,sp,100
 20055e8:	d9814c17 	ldw	r6,1328(sp)
 20055ec:	3080004c 	andi	r2,r6,1
 20055f0:	1005003a 	cmpeq	r2,r2,zero
 20055f4:	103ea51e 	bne	r2,zero,200508c <___vfprintf_internal_r+0x5f8>
 20055f8:	00800044 	movi	r2,1
 20055fc:	dc400d17 	ldw	r17,52(sp)
 2005600:	18800115 	stw	r2,4(r3)
 2005604:	d8814917 	ldw	r2,1316(sp)
 2005608:	94800044 	addi	r18,r18,1
 200560c:	8c400044 	addi	r17,r17,1
 2005610:	18800015 	stw	r2,0(r3)
 2005614:	008001c4 	movi	r2,7
 2005618:	dc800e15 	stw	r18,56(sp)
 200561c:	dc400d15 	stw	r17,52(sp)
 2005620:	1442240e 	bge	r2,r17,2005eb4 <___vfprintf_internal_r+0x1420>
 2005624:	d9014f17 	ldw	r4,1340(sp)
 2005628:	b00b883a 	mov	r5,r22
 200562c:	d9800c04 	addi	r6,sp,48
 2005630:	2004a3c0 	call	2004a3c <__sprint_r>
 2005634:	103ecf1e 	bne	r2,zero,2005174 <___vfprintf_internal_r+0x6e0>
 2005638:	dc800e17 	ldw	r18,56(sp)
 200563c:	d8c01904 	addi	r3,sp,100
 2005640:	003e9206 	br	200508c <___vfprintf_internal_r+0x5f8>
 2005644:	d9014f17 	ldw	r4,1340(sp)
 2005648:	b00b883a 	mov	r5,r22
 200564c:	d9800c04 	addi	r6,sp,48
 2005650:	2004a3c0 	call	2004a3c <__sprint_r>
 2005654:	103ec026 	beq	r2,zero,2005158 <___vfprintf_internal_r+0x6c4>
 2005658:	003ec606 	br	2005174 <___vfprintf_internal_r+0x6e0>
 200565c:	d9014f17 	ldw	r4,1340(sp)
 2005660:	b00b883a 	mov	r5,r22
 2005664:	d9800c04 	addi	r6,sp,48
 2005668:	d9c15115 	stw	r7,1348(sp)
 200566c:	2004a3c0 	call	2004a3c <__sprint_r>
 2005670:	d9c15117 	ldw	r7,1348(sp)
 2005674:	103ebf1e 	bne	r2,zero,2005174 <___vfprintf_internal_r+0x6e0>
 2005678:	dc800e17 	ldw	r18,56(sp)
 200567c:	dc400d17 	ldw	r17,52(sp)
 2005680:	dd401904 	addi	r21,sp,100
 2005684:	003e7406 	br	2005058 <___vfprintf_internal_r+0x5c4>
 2005688:	d9014f17 	ldw	r4,1340(sp)
 200568c:	b00b883a 	mov	r5,r22
 2005690:	d9800c04 	addi	r6,sp,48
 2005694:	d9c15115 	stw	r7,1348(sp)
 2005698:	2004a3c0 	call	2004a3c <__sprint_r>
 200569c:	d9c15117 	ldw	r7,1348(sp)
 20056a0:	103eb41e 	bne	r2,zero,2005174 <___vfprintf_internal_r+0x6e0>
 20056a4:	dd401904 	addi	r21,sp,100
 20056a8:	003d6d06 	br	2004c60 <___vfprintf_internal_r+0x1cc>
 20056ac:	d9014f17 	ldw	r4,1340(sp)
 20056b0:	b00b883a 	mov	r5,r22
 20056b4:	d9800c04 	addi	r6,sp,48
 20056b8:	d9c15115 	stw	r7,1348(sp)
 20056bc:	2004a3c0 	call	2004a3c <__sprint_r>
 20056c0:	d9c15117 	ldw	r7,1348(sp)
 20056c4:	103eab1e 	bne	r2,zero,2005174 <___vfprintf_internal_r+0x6e0>
 20056c8:	dc800e17 	ldw	r18,56(sp)
 20056cc:	dc400d17 	ldw	r17,52(sp)
 20056d0:	dd401904 	addi	r21,sp,100
 20056d4:	003e3406 	br	2004fa8 <___vfprintf_internal_r+0x514>
 20056d8:	d9014f17 	ldw	r4,1340(sp)
 20056dc:	b00b883a 	mov	r5,r22
 20056e0:	d9800c04 	addi	r6,sp,48
 20056e4:	d9c15115 	stw	r7,1348(sp)
 20056e8:	2004a3c0 	call	2004a3c <__sprint_r>
 20056ec:	d9c15117 	ldw	r7,1348(sp)
 20056f0:	103ea01e 	bne	r2,zero,2005174 <___vfprintf_internal_r+0x6e0>
 20056f4:	dc800e17 	ldw	r18,56(sp)
 20056f8:	dc400d17 	ldw	r17,52(sp)
 20056fc:	dd401904 	addi	r21,sp,100
 2005700:	003e1c06 	br	2004f74 <___vfprintf_internal_r+0x4e0>
 2005704:	d9014f17 	ldw	r4,1340(sp)
 2005708:	b00b883a 	mov	r5,r22
 200570c:	d9800c04 	addi	r6,sp,48
 2005710:	d9c15115 	stw	r7,1348(sp)
 2005714:	2004a3c0 	call	2004a3c <__sprint_r>
 2005718:	d9c15117 	ldw	r7,1348(sp)
 200571c:	103e951e 	bne	r2,zero,2005174 <___vfprintf_internal_r+0x6e0>
 2005720:	dc800e17 	ldw	r18,56(sp)
 2005724:	dc400d17 	ldw	r17,52(sp)
 2005728:	dd401904 	addi	r21,sp,100
 200572c:	003e0406 	br	2004f40 <___vfprintf_internal_r+0x4ac>
 2005730:	d9000517 	ldw	r4,20(sp)
 2005734:	0102580e 	bge	zero,r4,2006098 <___vfprintf_internal_r+0x1604>
 2005738:	d9814717 	ldw	r6,1308(sp)
 200573c:	21807a16 	blt	r4,r6,2005928 <___vfprintf_internal_r+0xe94>
 2005740:	d8814117 	ldw	r2,1284(sp)
 2005744:	91a5883a 	add	r18,r18,r6
 2005748:	8c400044 	addi	r17,r17,1
 200574c:	a8800015 	stw	r2,0(r21)
 2005750:	008001c4 	movi	r2,7
 2005754:	a9800115 	stw	r6,4(r21)
 2005758:	dc800e15 	stw	r18,56(sp)
 200575c:	dc400d15 	stw	r17,52(sp)
 2005760:	1442fc16 	blt	r2,r17,2006354 <___vfprintf_internal_r+0x18c0>
 2005764:	a8c00204 	addi	r3,r21,8
 2005768:	d9414717 	ldw	r5,1308(sp)
 200576c:	2161c83a 	sub	r16,r4,r5
 2005770:	043f9d0e 	bge	zero,r16,20055e8 <___vfprintf_internal_r+0xb54>
 2005774:	00800404 	movi	r2,16
 2005778:	1402190e 	bge	r2,r16,2005fe0 <___vfprintf_internal_r+0x154c>
 200577c:	dc400d17 	ldw	r17,52(sp)
 2005780:	1027883a 	mov	r19,r2
 2005784:	07008074 	movhi	fp,513
 2005788:	e7053184 	addi	fp,fp,5318
 200578c:	050001c4 	movi	r20,7
 2005790:	00000306 	br	20057a0 <___vfprintf_internal_r+0xd0c>
 2005794:	18c00204 	addi	r3,r3,8
 2005798:	843ffc04 	addi	r16,r16,-16
 200579c:	9c02130e 	bge	r19,r16,2005fec <___vfprintf_internal_r+0x1558>
 20057a0:	94800404 	addi	r18,r18,16
 20057a4:	8c400044 	addi	r17,r17,1
 20057a8:	1f000015 	stw	fp,0(r3)
 20057ac:	1cc00115 	stw	r19,4(r3)
 20057b0:	dc800e15 	stw	r18,56(sp)
 20057b4:	dc400d15 	stw	r17,52(sp)
 20057b8:	a47ff60e 	bge	r20,r17,2005794 <___vfprintf_internal_r+0xd00>
 20057bc:	d9014f17 	ldw	r4,1340(sp)
 20057c0:	b00b883a 	mov	r5,r22
 20057c4:	d9800c04 	addi	r6,sp,48
 20057c8:	2004a3c0 	call	2004a3c <__sprint_r>
 20057cc:	103e691e 	bne	r2,zero,2005174 <___vfprintf_internal_r+0x6e0>
 20057d0:	dc800e17 	ldw	r18,56(sp)
 20057d4:	dc400d17 	ldw	r17,52(sp)
 20057d8:	d8c01904 	addi	r3,sp,100
 20057dc:	003fee06 	br	2005798 <___vfprintf_internal_r+0xd04>
 20057e0:	d8814717 	ldw	r2,1308(sp)
 20057e4:	143fffc4 	addi	r16,r2,-1
 20057e8:	043e970e 	bge	zero,r16,2005248 <___vfprintf_internal_r+0x7b4>
 20057ec:	00800404 	movi	r2,16
 20057f0:	1400180e 	bge	r2,r16,2005854 <___vfprintf_internal_r+0xdc0>
 20057f4:	1029883a 	mov	r20,r2
 20057f8:	07008074 	movhi	fp,513
 20057fc:	e7053184 	addi	fp,fp,5318
 2005800:	054001c4 	movi	r21,7
 2005804:	00000306 	br	2005814 <___vfprintf_internal_r+0xd80>
 2005808:	9cc00204 	addi	r19,r19,8
 200580c:	843ffc04 	addi	r16,r16,-16
 2005810:	a400120e 	bge	r20,r16,200585c <___vfprintf_internal_r+0xdc8>
 2005814:	94800404 	addi	r18,r18,16
 2005818:	8c400044 	addi	r17,r17,1
 200581c:	9f000015 	stw	fp,0(r19)
 2005820:	9d000115 	stw	r20,4(r19)
 2005824:	dc800e15 	stw	r18,56(sp)
 2005828:	dc400d15 	stw	r17,52(sp)
 200582c:	ac7ff60e 	bge	r21,r17,2005808 <___vfprintf_internal_r+0xd74>
 2005830:	d9014f17 	ldw	r4,1340(sp)
 2005834:	b00b883a 	mov	r5,r22
 2005838:	d9800c04 	addi	r6,sp,48
 200583c:	2004a3c0 	call	2004a3c <__sprint_r>
 2005840:	103e4c1e 	bne	r2,zero,2005174 <___vfprintf_internal_r+0x6e0>
 2005844:	dc800e17 	ldw	r18,56(sp)
 2005848:	dc400d17 	ldw	r17,52(sp)
 200584c:	dcc01904 	addi	r19,sp,100
 2005850:	003fee06 	br	200580c <___vfprintf_internal_r+0xd78>
 2005854:	07008074 	movhi	fp,513
 2005858:	e7053184 	addi	fp,fp,5318
 200585c:	9425883a 	add	r18,r18,r16
 2005860:	8c400044 	addi	r17,r17,1
 2005864:	008001c4 	movi	r2,7
 2005868:	9f000015 	stw	fp,0(r19)
 200586c:	9c000115 	stw	r16,4(r19)
 2005870:	dc800e15 	stw	r18,56(sp)
 2005874:	dc400d15 	stw	r17,52(sp)
 2005878:	147e720e 	bge	r2,r17,2005244 <___vfprintf_internal_r+0x7b0>
 200587c:	d9014f17 	ldw	r4,1340(sp)
 2005880:	b00b883a 	mov	r5,r22
 2005884:	d9800c04 	addi	r6,sp,48
 2005888:	2004a3c0 	call	2004a3c <__sprint_r>
 200588c:	103e391e 	bne	r2,zero,2005174 <___vfprintf_internal_r+0x6e0>
 2005890:	dc800e17 	ldw	r18,56(sp)
 2005894:	dc400d17 	ldw	r17,52(sp)
 2005898:	dcc01904 	addi	r19,sp,100
 200589c:	003e6a06 	br	2005248 <___vfprintf_internal_r+0x7b4>
 20058a0:	d9014f17 	ldw	r4,1340(sp)
 20058a4:	b00b883a 	mov	r5,r22
 20058a8:	d9800c04 	addi	r6,sp,48
 20058ac:	d9c15115 	stw	r7,1348(sp)
 20058b0:	2004a3c0 	call	2004a3c <__sprint_r>
 20058b4:	d9c15117 	ldw	r7,1348(sp)
 20058b8:	103e2e1e 	bne	r2,zero,2005174 <___vfprintf_internal_r+0x6e0>
 20058bc:	dc800e17 	ldw	r18,56(sp)
 20058c0:	dc400d17 	ldw	r17,52(sp)
 20058c4:	dd401904 	addi	r21,sp,100
 20058c8:	003dba06 	br	2004fb4 <___vfprintf_internal_r+0x520>
 20058cc:	d9014f17 	ldw	r4,1340(sp)
 20058d0:	b00b883a 	mov	r5,r22
 20058d4:	d9800c04 	addi	r6,sp,48
 20058d8:	2004a3c0 	call	2004a3c <__sprint_r>
 20058dc:	103e251e 	bne	r2,zero,2005174 <___vfprintf_internal_r+0x6e0>
 20058e0:	dc800e17 	ldw	r18,56(sp)
 20058e4:	dc400d17 	ldw	r17,52(sp)
 20058e8:	dcc01904 	addi	r19,sp,100
 20058ec:	003e4206 	br	20051f8 <___vfprintf_internal_r+0x764>
 20058f0:	d9014f17 	ldw	r4,1340(sp)
 20058f4:	b00b883a 	mov	r5,r22
 20058f8:	d9800c04 	addi	r6,sp,48
 20058fc:	2004a3c0 	call	2004a3c <__sprint_r>
 2005900:	103e1c1e 	bne	r2,zero,2005174 <___vfprintf_internal_r+0x6e0>
 2005904:	dc800e17 	ldw	r18,56(sp)
 2005908:	dc400d17 	ldw	r17,52(sp)
 200590c:	d8c01904 	addi	r3,sp,100
 2005910:	003e2e06 	br	20051cc <___vfprintf_internal_r+0x738>
 2005914:	d9414c17 	ldw	r5,1328(sp)
 2005918:	2880004c 	andi	r2,r5,1
 200591c:	1005003a 	cmpeq	r2,r2,zero
 2005920:	103dda1e 	bne	r2,zero,200508c <___vfprintf_internal_r+0x5f8>
 2005924:	003e9f06 	br	20053a4 <___vfprintf_internal_r+0x910>
 2005928:	d8c14117 	ldw	r3,1284(sp)
 200592c:	9125883a 	add	r18,r18,r4
 2005930:	8c400044 	addi	r17,r17,1
 2005934:	008001c4 	movi	r2,7
 2005938:	a8c00015 	stw	r3,0(r21)
 200593c:	a9000115 	stw	r4,4(r21)
 2005940:	dc800e15 	stw	r18,56(sp)
 2005944:	dc400d15 	stw	r17,52(sp)
 2005948:	14426c16 	blt	r2,r17,20062fc <___vfprintf_internal_r+0x1868>
 200594c:	a8c00204 	addi	r3,r21,8
 2005950:	d9414917 	ldw	r5,1316(sp)
 2005954:	00800044 	movi	r2,1
 2005958:	94800044 	addi	r18,r18,1
